
ARM_MasterClass_session2.axf:     file format elf32-littlearm


Disassembly of section .isr_vector:

08000000 <g_pfnVectors>:
 8000000:	20005000 	andcs	r5, r0, r0
 8000004:	08000d45 	stmdaeq	r0, {r0, r2, r6, r8, sl, fp}
 8000008:	080001c9 	stmdaeq	r0, {r0, r3, r6, r7, r8}
 800000c:	080001d5 	stmdaeq	r0, {r0, r2, r4, r6, r7, r8}
 8000010:	080001e1 	stmdaeq	r0, {r0, r5, r6, r7, r8}
 8000014:	080001ed 	stmdaeq	r0, {r0, r2, r3, r5, r6, r7, r8}
 8000018:	080001f9 	stmdaeq	r0, {r0, r3, r4, r5, r6, r7, r8}
	...
 800002c:	08000205 	stmdaeq	r0, {r0, r2, r9}
 8000030:	08000211 	stmdaeq	r0, {r0, r4, r9}
 8000034:	00000000 	andeq	r0, r0, r0
 8000038:	0800021d 	stmdaeq	r0, {r0, r2, r3, r4, r9}
 800003c:	08000d95 	stmdaeq	r0, {r0, r2, r4, r7, r8, sl, fp}
 8000040:	08000d95 	stmdaeq	r0, {r0, r2, r4, r7, r8, sl, fp}
 8000044:	08000d95 	stmdaeq	r0, {r0, r2, r4, r7, r8, sl, fp}
 8000048:	08000d95 	stmdaeq	r0, {r0, r2, r4, r7, r8, sl, fp}
 800004c:	08000d95 	stmdaeq	r0, {r0, r2, r4, r7, r8, sl, fp}
 8000050:	08000d95 	stmdaeq	r0, {r0, r2, r4, r7, r8, sl, fp}
 8000054:	08000d95 	stmdaeq	r0, {r0, r2, r4, r7, r8, sl, fp}
 8000058:	08000625 	stmdaeq	r0, {r0, r2, r5, r9, sl}
 800005c:	08000649 	stmdaeq	r0, {r0, r3, r6, r9, sl}
 8000060:	0800066d 	stmdaeq	r0, {r0, r2, r3, r5, r6, r9, sl}
 8000064:	08000691 	stmdaeq	r0, {r0, r4, r7, r9, sl}
 8000068:	080006b5 	stmdaeq	r0, {r0, r2, r4, r5, r7, r9, sl}
 800006c:	08000d95 	stmdaeq	r0, {r0, r2, r4, r7, r8, sl, fp}
 8000070:	08000d95 	stmdaeq	r0, {r0, r2, r4, r7, r8, sl, fp}
 8000074:	08000d95 	stmdaeq	r0, {r0, r2, r4, r7, r8, sl, fp}
 8000078:	08000d95 	stmdaeq	r0, {r0, r2, r4, r7, r8, sl, fp}
 800007c:	08000d95 	stmdaeq	r0, {r0, r2, r4, r7, r8, sl, fp}
 8000080:	08000d95 	stmdaeq	r0, {r0, r2, r4, r7, r8, sl, fp}
 8000084:	08000d95 	stmdaeq	r0, {r0, r2, r4, r7, r8, sl, fp}
 8000088:	08000d95 	stmdaeq	r0, {r0, r2, r4, r7, r8, sl, fp}
 800008c:	08000d95 	stmdaeq	r0, {r0, r2, r4, r7, r8, sl, fp}
 8000090:	08000d95 	stmdaeq	r0, {r0, r2, r4, r7, r8, sl, fp}
 8000094:	08000d95 	stmdaeq	r0, {r0, r2, r4, r7, r8, sl, fp}
 8000098:	08000d95 	stmdaeq	r0, {r0, r2, r4, r7, r8, sl, fp}
 800009c:	080006d9 	stmdaeq	r0, {r0, r3, r4, r6, r7, r9, sl}
 80000a0:	08000d95 	stmdaeq	r0, {r0, r2, r4, r7, r8, sl, fp}
 80000a4:	08000d95 	stmdaeq	r0, {r0, r2, r4, r7, r8, sl, fp}
 80000a8:	08000d95 	stmdaeq	r0, {r0, r2, r4, r7, r8, sl, fp}
 80000ac:	08000d95 	stmdaeq	r0, {r0, r2, r4, r7, r8, sl, fp}
 80000b0:	08000d95 	stmdaeq	r0, {r0, r2, r4, r7, r8, sl, fp}
 80000b4:	08000d95 	stmdaeq	r0, {r0, r2, r4, r7, r8, sl, fp}
 80000b8:	08000d95 	stmdaeq	r0, {r0, r2, r4, r7, r8, sl, fp}
 80000bc:	08000851 	stmdaeq	r0, {r0, r4, r6, fp}
 80000c0:	08000845 	stmdaeq	r0, {r0, r2, r6, fp}
 80000c4:	08000a29 	stmdaeq	r0, {r0, r3, r5, r9, fp}
 80000c8:	08000a1d 	stmdaeq	r0, {r0, r2, r3, r4, r9, fp}
 80000cc:	08000a35 	stmdaeq	r0, {r0, r2, r4, r5, r9, fp}
 80000d0:	08000a91 	stmdaeq	r0, {r0, r4, r7, r9, fp}
 80000d4:	08000aed 	stmdaeq	r0, {r0, r2, r3, r5, r6, r7, r9, fp}
 80000d8:	08000b01 	stmdaeq	r0, {r0, r8, r9, fp}
 80000dc:	08000b15 	stmdaeq	r0, {r0, r2, r4, r8, r9, fp}
 80000e0:	08000781 	stmdaeq	r0, {r0, r7, r8, r9, sl}
 80000e4:	08000d95 	stmdaeq	r0, {r0, r2, r4, r7, r8, sl, fp}
 80000e8:	00000000 	andeq	r0, r0, r0
 80000ec:	08000d95 	stmdaeq	r0, {r0, r2, r4, r7, r8, sl, fp}
 80000f0:	08000d95 	stmdaeq	r0, {r0, r2, r4, r7, r8, sl, fp}
 80000f4:	08000d95 	stmdaeq	r0, {r0, r2, r4, r7, r8, sl, fp}
 80000f8:	08000d95 	stmdaeq	r0, {r0, r2, r4, r7, r8, sl, fp}
 80000fc:	08000d95 	stmdaeq	r0, {r0, r2, r4, r7, r8, sl, fp}
 8000100:	08000d95 	stmdaeq	r0, {r0, r2, r4, r7, r8, sl, fp}
 8000104:	08000d95 	stmdaeq	r0, {r0, r2, r4, r7, r8, sl, fp}
 8000108:	08000d95 	stmdaeq	r0, {r0, r2, r4, r7, r8, sl, fp}
 800010c:	08000d95 	stmdaeq	r0, {r0, r2, r4, r7, r8, sl, fp}
 8000110:	08000d95 	stmdaeq	r0, {r0, r2, r4, r7, r8, sl, fp}
 8000114:	08000d95 	stmdaeq	r0, {r0, r2, r4, r7, r8, sl, fp}
 8000118:	08000d95 	stmdaeq	r0, {r0, r2, r4, r7, r8, sl, fp}
 800011c:	08000d95 	stmdaeq	r0, {r0, r2, r4, r7, r8, sl, fp}
 8000120:	08000d95 	stmdaeq	r0, {r0, r2, r4, r7, r8, sl, fp}
 8000124:	08000d95 	stmdaeq	r0, {r0, r2, r4, r7, r8, sl, fp}
 8000128:	08000d95 	stmdaeq	r0, {r0, r2, r4, r7, r8, sl, fp}
 800012c:	08000d95 	stmdaeq	r0, {r0, r2, r4, r7, r8, sl, fp}

Disassembly of section .text:

08000130 <__do_global_dtors_aux>:
 8000130:	b510      	push	{r4, lr}
 8000132:	4c05      	ldr	r4, [pc, #20]	; (8000148 <__do_global_dtors_aux+0x18>)
 8000134:	7823      	ldrb	r3, [r4, #0]
 8000136:	b933      	cbnz	r3, 8000146 <__do_global_dtors_aux+0x16>
 8000138:	4b04      	ldr	r3, [pc, #16]	; (800014c <__do_global_dtors_aux+0x1c>)
 800013a:	b113      	cbz	r3, 8000142 <__do_global_dtors_aux+0x12>
 800013c:	4804      	ldr	r0, [pc, #16]	; (8000150 <__do_global_dtors_aux+0x20>)
 800013e:	f3af 8000 	nop.w
 8000142:	2301      	movs	r3, #1
 8000144:	7023      	strb	r3, [r4, #0]
 8000146:	bd10      	pop	{r4, pc}
 8000148:	20000000 	andcs	r0, r0, r0
 800014c:	00000000 	andeq	r0, r0, r0
 8000150:	08000de0 	stmdaeq	r0, {r5, r6, r7, r8, sl, fp}

08000154 <frame_dummy>:
 8000154:	b508      	push	{r3, lr}
 8000156:	4b03      	ldr	r3, [pc, #12]	; (8000164 <frame_dummy+0x10>)
 8000158:	b11b      	cbz	r3, 8000162 <frame_dummy+0xe>
 800015a:	4903      	ldr	r1, [pc, #12]	; (8000168 <frame_dummy+0x14>)
 800015c:	4803      	ldr	r0, [pc, #12]	; (800016c <frame_dummy+0x18>)
 800015e:	f3af 8000 	nop.w
 8000162:	bd08      	pop	{r3, pc}
 8000164:	00000000 	andeq	r0, r0, r0
 8000168:	20000004 	andcs	r0, r0, r4
 800016c:	08000de0 	stmdaeq	r0, {r5, r6, r7, r8, sl, fp}

08000170 <SWITCH_ACCESS_LEVEL>:
 8000170:	b480      	push	{r7}
 8000172:	b083      	sub	sp, #12
 8000174:	af00      	add	r7, sp, #0
 8000176:	4603      	mov	r3, r0
 8000178:	71fb      	strb	r3, [r7, #7]
 800017a:	79fb      	ldrb	r3, [r7, #7]
 800017c:	2b00      	cmp	r3, #0
 800017e:	d002      	beq.n	8000186 <SWITCH_ACCESS_LEVEL+0x16>
 8000180:	2b01      	cmp	r3, #1
 8000182:	d009      	beq.n	8000198 <SWITCH_ACCESS_LEVEL+0x28>
 8000184:	e00f      	b.n	80001a6 <SWITCH_ACCESS_LEVEL+0x36>
 8000186:	f3ef 8314 	mrs	r3, CONTROL
 800018a:	ea4f 0353 	mov.w	r3, r3, lsr #1
 800018e:	ea4f 0343 	mov.w	r3, r3, lsl #1
 8000192:	f383 8814 	msr	CONTROL, r3
 8000196:	e006      	b.n	80001a6 <SWITCH_ACCESS_LEVEL+0x36>
 8000198:	f3ef 8314 	mrs	r3, CONTROL
 800019c:	f043 0301 	orr.w	r3, r3, #1
 80001a0:	f383 8814 	msr	CONTROL, r3
 80001a4:	bf00      	nop
 80001a6:	bf00      	nop
 80001a8:	370c      	adds	r7, #12
 80001aa:	46bd      	mov	sp, r7
 80001ac:	bc80      	pop	{r7}
 80001ae:	4770      	bx	lr

080001b0 <EXTI9_CALLBACK>:
 80001b0:	b580      	push	{r7, lr}
 80001b2:	af00      	add	r7, sp, #0
 80001b4:	4b03      	ldr	r3, [pc, #12]	; (80001c4 <EXTI9_CALLBACK+0x14>)
 80001b6:	2201      	movs	r2, #1
 80001b8:	701a      	strb	r2, [r3, #0]
 80001ba:	2000      	movs	r0, #0
 80001bc:	f7ff ffd8 	bl	8000170 <SWITCH_ACCESS_LEVEL>
 80001c0:	bf00      	nop
 80001c2:	bd80      	pop	{r7, pc}
 80001c4:	2000001c 	andcs	r0, r0, ip, lsl r0

080001c8 <NMI_Handler>:
 80001c8:	b480      	push	{r7}
 80001ca:	af00      	add	r7, sp, #0
 80001cc:	bf00      	nop
 80001ce:	46bd      	mov	sp, r7
 80001d0:	bc80      	pop	{r7}
 80001d2:	4770      	bx	lr

080001d4 <HardFault_Handler>:
 80001d4:	b480      	push	{r7}
 80001d6:	af00      	add	r7, sp, #0
 80001d8:	bf00      	nop
 80001da:	46bd      	mov	sp, r7
 80001dc:	bc80      	pop	{r7}
 80001de:	4770      	bx	lr

080001e0 <MemManage_Handler>:
 80001e0:	b480      	push	{r7}
 80001e2:	af00      	add	r7, sp, #0
 80001e4:	bf00      	nop
 80001e6:	46bd      	mov	sp, r7
 80001e8:	bc80      	pop	{r7}
 80001ea:	4770      	bx	lr

080001ec <BusFault_Handler>:
 80001ec:	b480      	push	{r7}
 80001ee:	af00      	add	r7, sp, #0
 80001f0:	bf00      	nop
 80001f2:	46bd      	mov	sp, r7
 80001f4:	bc80      	pop	{r7}
 80001f6:	4770      	bx	lr

080001f8 <UsageFault_Handler>:
 80001f8:	b480      	push	{r7}
 80001fa:	af00      	add	r7, sp, #0
 80001fc:	bf00      	nop
 80001fe:	46bd      	mov	sp, r7
 8000200:	bc80      	pop	{r7}
 8000202:	4770      	bx	lr

08000204 <SVC_Handler>:
 8000204:	b480      	push	{r7}
 8000206:	af00      	add	r7, sp, #0
 8000208:	bf00      	nop
 800020a:	46bd      	mov	sp, r7
 800020c:	bc80      	pop	{r7}
 800020e:	4770      	bx	lr

08000210 <DebugMon_Handler>:
 8000210:	b480      	push	{r7}
 8000212:	af00      	add	r7, sp, #0
 8000214:	bf00      	nop
 8000216:	46bd      	mov	sp, r7
 8000218:	bc80      	pop	{r7}
 800021a:	4770      	bx	lr

0800021c <PendSV_Handler>:
 800021c:	b480      	push	{r7}
 800021e:	af00      	add	r7, sp, #0
 8000220:	bf00      	nop
 8000222:	46bd      	mov	sp, r7
 8000224:	bc80      	pop	{r7}
 8000226:	4770      	bx	lr

08000228 <main>:
 8000228:	b580      	push	{r7, lr}
 800022a:	b086      	sub	sp, #24
 800022c:	af00      	add	r7, sp, #0
 800022e:	4b17      	ldr	r3, [pc, #92]	; (800028c <main+0x64>)
 8000230:	699b      	ldr	r3, [r3, #24]
 8000232:	4a16      	ldr	r2, [pc, #88]	; (800028c <main+0x64>)
 8000234:	f043 0308 	orr.w	r3, r3, #8
 8000238:	6193      	str	r3, [r2, #24]
 800023a:	4b14      	ldr	r3, [pc, #80]	; (800028c <main+0x64>)
 800023c:	699b      	ldr	r3, [r3, #24]
 800023e:	4a13      	ldr	r2, [pc, #76]	; (800028c <main+0x64>)
 8000240:	f043 0301 	orr.w	r3, r3, #1
 8000244:	6193      	str	r3, [r2, #24]
 8000246:	4a12      	ldr	r2, [pc, #72]	; (8000290 <main+0x68>)
 8000248:	1d3b      	adds	r3, r7, #4
 800024a:	ca07      	ldmia	r2, {r0, r1, r2}
 800024c:	e883 0007 	stmia.w	r3, {r0, r1, r2}
 8000250:	2300      	movs	r3, #0
 8000252:	743b      	strb	r3, [r7, #16]
 8000254:	4b0f      	ldr	r3, [pc, #60]	; (8000294 <main+0x6c>)
 8000256:	617b      	str	r3, [r7, #20]
 8000258:	2301      	movs	r3, #1
 800025a:	747b      	strb	r3, [r7, #17]
 800025c:	1d3b      	adds	r3, r7, #4
 800025e:	4618      	mov	r0, r3
 8000260:	f000 f9d4 	bl	800060c <MCAL_EXTI_GPIO_Init>
 8000264:	4b0c      	ldr	r3, [pc, #48]	; (8000298 <main+0x70>)
 8000266:	2201      	movs	r2, #1
 8000268:	701a      	strb	r2, [r3, #0]
 800026a:	bf00      	nop
 800026c:	bf00      	nop
 800026e:	bf00      	nop
 8000270:	2001      	movs	r0, #1
 8000272:	f7ff ff7d 	bl	8000170 <SWITCH_ACCESS_LEVEL>
 8000276:	bf00      	nop
 8000278:	bf00      	nop
 800027a:	bf00      	nop
 800027c:	4b06      	ldr	r3, [pc, #24]	; (8000298 <main+0x70>)
 800027e:	781b      	ldrb	r3, [r3, #0]
 8000280:	2b00      	cmp	r3, #0
 8000282:	d0fb      	beq.n	800027c <main+0x54>
 8000284:	4b04      	ldr	r3, [pc, #16]	; (8000298 <main+0x70>)
 8000286:	2200      	movs	r2, #0
 8000288:	701a      	strb	r2, [r3, #0]
 800028a:	e7f7      	b.n	800027c <main+0x54>
 800028c:	40021000 	andmi	r1, r2, r0
 8000290:	08000df8 	stmdaeq	r0, {r3, r4, r5, r6, r7, r8, sl, fp}
 8000294:	080001b1 	stmdaeq	r0, {r0, r4, r5, r7, r8}
 8000298:	2000001c 	andcs	r0, r0, ip, lsl r0

0800029c <Enable_NVIC>:
 800029c:	b480      	push	{r7}
 800029e:	b083      	sub	sp, #12
 80002a0:	af00      	add	r7, sp, #0
 80002a2:	4603      	mov	r3, r0
 80002a4:	80fb      	strh	r3, [r7, #6]
 80002a6:	88fb      	ldrh	r3, [r7, #6]
 80002a8:	2b0f      	cmp	r3, #15
 80002aa:	d854      	bhi.n	8000356 <Enable_NVIC+0xba>
 80002ac:	a201      	add	r2, pc, #4	; (adr r2, 80002b4 <Enable_NVIC+0x18>)
 80002ae:	f852 f023 	ldr.w	pc, [r2, r3, lsl #2]
 80002b2:	bf00      	nop
 80002b4:	080002f5 	stmdaeq	r0, {r0, r2, r4, r5, r6, r7, r9}
 80002b8:	08000303 	stmdaeq	r0, {r0, r1, r8, r9}
 80002bc:	08000311 	stmdaeq	r0, {r0, r4, r8, r9}
 80002c0:	0800031f 	stmdaeq	r0, {r0, r1, r2, r3, r4, r8, r9}
 80002c4:	0800032d 	stmdaeq	r0, {r0, r2, r3, r5, r8, r9}
 80002c8:	0800033b 	stmdaeq	r0, {r0, r1, r3, r4, r5, r8, r9}
 80002cc:	0800033b 	stmdaeq	r0, {r0, r1, r3, r4, r5, r8, r9}
 80002d0:	0800033b 	stmdaeq	r0, {r0, r1, r3, r4, r5, r8, r9}
 80002d4:	0800033b 	stmdaeq	r0, {r0, r1, r3, r4, r5, r8, r9}
 80002d8:	0800033b 	stmdaeq	r0, {r0, r1, r3, r4, r5, r8, r9}
 80002dc:	08000349 	stmdaeq	r0, {r0, r3, r6, r8, r9}
 80002e0:	08000349 	stmdaeq	r0, {r0, r3, r6, r8, r9}
 80002e4:	08000349 	stmdaeq	r0, {r0, r3, r6, r8, r9}
 80002e8:	08000349 	stmdaeq	r0, {r0, r3, r6, r8, r9}
 80002ec:	08000349 	stmdaeq	r0, {r0, r3, r6, r8, r9}
 80002f0:	08000349 	stmdaeq	r0, {r0, r3, r6, r8, r9}
 80002f4:	4b1a      	ldr	r3, [pc, #104]	; (8000360 <Enable_NVIC+0xc4>)
 80002f6:	681b      	ldr	r3, [r3, #0]
 80002f8:	4a19      	ldr	r2, [pc, #100]	; (8000360 <Enable_NVIC+0xc4>)
 80002fa:	f043 0340 	orr.w	r3, r3, #64	; 0x40
 80002fe:	6013      	str	r3, [r2, #0]
 8000300:	e029      	b.n	8000356 <Enable_NVIC+0xba>
 8000302:	4b17      	ldr	r3, [pc, #92]	; (8000360 <Enable_NVIC+0xc4>)
 8000304:	681b      	ldr	r3, [r3, #0]
 8000306:	4a16      	ldr	r2, [pc, #88]	; (8000360 <Enable_NVIC+0xc4>)
 8000308:	f043 0380 	orr.w	r3, r3, #128	; 0x80
 800030c:	6013      	str	r3, [r2, #0]
 800030e:	e022      	b.n	8000356 <Enable_NVIC+0xba>
 8000310:	4b13      	ldr	r3, [pc, #76]	; (8000360 <Enable_NVIC+0xc4>)
 8000312:	681b      	ldr	r3, [r3, #0]
 8000314:	4a12      	ldr	r2, [pc, #72]	; (8000360 <Enable_NVIC+0xc4>)
 8000316:	f443 7380 	orr.w	r3, r3, #256	; 0x100
 800031a:	6013      	str	r3, [r2, #0]
 800031c:	e01b      	b.n	8000356 <Enable_NVIC+0xba>
 800031e:	4b10      	ldr	r3, [pc, #64]	; (8000360 <Enable_NVIC+0xc4>)
 8000320:	681b      	ldr	r3, [r3, #0]
 8000322:	4a0f      	ldr	r2, [pc, #60]	; (8000360 <Enable_NVIC+0xc4>)
 8000324:	f443 7300 	orr.w	r3, r3, #512	; 0x200
 8000328:	6013      	str	r3, [r2, #0]
 800032a:	e014      	b.n	8000356 <Enable_NVIC+0xba>
 800032c:	4b0c      	ldr	r3, [pc, #48]	; (8000360 <Enable_NVIC+0xc4>)
 800032e:	681b      	ldr	r3, [r3, #0]
 8000330:	4a0b      	ldr	r2, [pc, #44]	; (8000360 <Enable_NVIC+0xc4>)
 8000332:	f443 6380 	orr.w	r3, r3, #1024	; 0x400
 8000336:	6013      	str	r3, [r2, #0]
 8000338:	e00d      	b.n	8000356 <Enable_NVIC+0xba>
 800033a:	4b09      	ldr	r3, [pc, #36]	; (8000360 <Enable_NVIC+0xc4>)
 800033c:	681b      	ldr	r3, [r3, #0]
 800033e:	4a08      	ldr	r2, [pc, #32]	; (8000360 <Enable_NVIC+0xc4>)
 8000340:	f443 0300 	orr.w	r3, r3, #8388608	; 0x800000
 8000344:	6013      	str	r3, [r2, #0]
 8000346:	e006      	b.n	8000356 <Enable_NVIC+0xba>
 8000348:	4b06      	ldr	r3, [pc, #24]	; (8000364 <Enable_NVIC+0xc8>)
 800034a:	681b      	ldr	r3, [r3, #0]
 800034c:	4a05      	ldr	r2, [pc, #20]	; (8000364 <Enable_NVIC+0xc8>)
 800034e:	f443 7380 	orr.w	r3, r3, #256	; 0x100
 8000352:	6013      	str	r3, [r2, #0]
 8000354:	bf00      	nop
 8000356:	bf00      	nop
 8000358:	370c      	adds	r7, #12
 800035a:	46bd      	mov	sp, r7
 800035c:	bc80      	pop	{r7}
 800035e:	4770      	bx	lr
 8000360:	e000e100 	and	lr, r0, r0, lsl #2
 8000364:	e000e104 	and	lr, r0, r4, lsl #2

08000368 <Disable_NVIC>:
 8000368:	b480      	push	{r7}
 800036a:	b083      	sub	sp, #12
 800036c:	af00      	add	r7, sp, #0
 800036e:	4603      	mov	r3, r0
 8000370:	80fb      	strh	r3, [r7, #6]
 8000372:	88fb      	ldrh	r3, [r7, #6]
 8000374:	2b0f      	cmp	r3, #15
 8000376:	d854      	bhi.n	8000422 <Disable_NVIC+0xba>
 8000378:	a201      	add	r2, pc, #4	; (adr r2, 8000380 <Disable_NVIC+0x18>)
 800037a:	f852 f023 	ldr.w	pc, [r2, r3, lsl #2]
 800037e:	bf00      	nop
 8000380:	080003c1 	stmdaeq	r0, {r0, r6, r7, r8, r9}
 8000384:	080003cf 	stmdaeq	r0, {r0, r1, r2, r3, r6, r7, r8, r9}
 8000388:	080003dd 	stmdaeq	r0, {r0, r2, r3, r4, r6, r7, r8, r9}
 800038c:	080003eb 	stmdaeq	r0, {r0, r1, r3, r5, r6, r7, r8, r9}
 8000390:	080003f9 	stmdaeq	r0, {r0, r3, r4, r5, r6, r7, r8, r9}
 8000394:	08000407 	stmdaeq	r0, {r0, r1, r2, sl}
 8000398:	08000407 	stmdaeq	r0, {r0, r1, r2, sl}
 800039c:	08000407 	stmdaeq	r0, {r0, r1, r2, sl}
 80003a0:	08000407 	stmdaeq	r0, {r0, r1, r2, sl}
 80003a4:	08000407 	stmdaeq	r0, {r0, r1, r2, sl}
 80003a8:	08000415 	stmdaeq	r0, {r0, r2, r4, sl}
 80003ac:	08000415 	stmdaeq	r0, {r0, r2, r4, sl}
 80003b0:	08000415 	stmdaeq	r0, {r0, r2, r4, sl}
 80003b4:	08000415 	stmdaeq	r0, {r0, r2, r4, sl}
 80003b8:	08000415 	stmdaeq	r0, {r0, r2, r4, sl}
 80003bc:	08000415 	stmdaeq	r0, {r0, r2, r4, sl}
 80003c0:	4b1a      	ldr	r3, [pc, #104]	; (800042c <Disable_NVIC+0xc4>)
 80003c2:	681b      	ldr	r3, [r3, #0]
 80003c4:	4a19      	ldr	r2, [pc, #100]	; (800042c <Disable_NVIC+0xc4>)
 80003c6:	f043 0340 	orr.w	r3, r3, #64	; 0x40
 80003ca:	6013      	str	r3, [r2, #0]
 80003cc:	e029      	b.n	8000422 <Disable_NVIC+0xba>
 80003ce:	4b17      	ldr	r3, [pc, #92]	; (800042c <Disable_NVIC+0xc4>)
 80003d0:	681b      	ldr	r3, [r3, #0]
 80003d2:	4a16      	ldr	r2, [pc, #88]	; (800042c <Disable_NVIC+0xc4>)
 80003d4:	f043 0380 	orr.w	r3, r3, #128	; 0x80
 80003d8:	6013      	str	r3, [r2, #0]
 80003da:	e022      	b.n	8000422 <Disable_NVIC+0xba>
 80003dc:	4b13      	ldr	r3, [pc, #76]	; (800042c <Disable_NVIC+0xc4>)
 80003de:	681b      	ldr	r3, [r3, #0]
 80003e0:	4a12      	ldr	r2, [pc, #72]	; (800042c <Disable_NVIC+0xc4>)
 80003e2:	f443 7380 	orr.w	r3, r3, #256	; 0x100
 80003e6:	6013      	str	r3, [r2, #0]
 80003e8:	e01b      	b.n	8000422 <Disable_NVIC+0xba>
 80003ea:	4b10      	ldr	r3, [pc, #64]	; (800042c <Disable_NVIC+0xc4>)
 80003ec:	681b      	ldr	r3, [r3, #0]
 80003ee:	4a0f      	ldr	r2, [pc, #60]	; (800042c <Disable_NVIC+0xc4>)
 80003f0:	f443 7300 	orr.w	r3, r3, #512	; 0x200
 80003f4:	6013      	str	r3, [r2, #0]
 80003f6:	e014      	b.n	8000422 <Disable_NVIC+0xba>
 80003f8:	4b0c      	ldr	r3, [pc, #48]	; (800042c <Disable_NVIC+0xc4>)
 80003fa:	681b      	ldr	r3, [r3, #0]
 80003fc:	4a0b      	ldr	r2, [pc, #44]	; (800042c <Disable_NVIC+0xc4>)
 80003fe:	f443 6380 	orr.w	r3, r3, #1024	; 0x400
 8000402:	6013      	str	r3, [r2, #0]
 8000404:	e00d      	b.n	8000422 <Disable_NVIC+0xba>
 8000406:	4b09      	ldr	r3, [pc, #36]	; (800042c <Disable_NVIC+0xc4>)
 8000408:	681b      	ldr	r3, [r3, #0]
 800040a:	4a08      	ldr	r2, [pc, #32]	; (800042c <Disable_NVIC+0xc4>)
 800040c:	f443 0300 	orr.w	r3, r3, #8388608	; 0x800000
 8000410:	6013      	str	r3, [r2, #0]
 8000412:	e006      	b.n	8000422 <Disable_NVIC+0xba>
 8000414:	4b06      	ldr	r3, [pc, #24]	; (8000430 <Disable_NVIC+0xc8>)
 8000416:	681b      	ldr	r3, [r3, #0]
 8000418:	4a05      	ldr	r2, [pc, #20]	; (8000430 <Disable_NVIC+0xc8>)
 800041a:	f443 7380 	orr.w	r3, r3, #256	; 0x100
 800041e:	6013      	str	r3, [r2, #0]
 8000420:	bf00      	nop
 8000422:	bf00      	nop
 8000424:	370c      	adds	r7, #12
 8000426:	46bd      	mov	sp, r7
 8000428:	bc80      	pop	{r7}
 800042a:	4770      	bx	lr
 800042c:	e000e180 	and	lr, r0, r0, lsl #3
 8000430:	e000e184 	and	lr, r0, r4, lsl #3

08000434 <Update_EXTI>:
 8000434:	b580      	push	{r7, lr}
 8000436:	b084      	sub	sp, #16
 8000438:	af00      	add	r7, sp, #0
 800043a:	6078      	str	r0, [r7, #4]
 800043c:	687b      	ldr	r3, [r7, #4]
 800043e:	891b      	ldrh	r3, [r3, #8]
 8000440:	813b      	strh	r3, [r7, #8]
 8000442:	2301      	movs	r3, #1
 8000444:	72bb      	strb	r3, [r7, #10]
 8000446:	687b      	ldr	r3, [r7, #4]
 8000448:	685b      	ldr	r3, [r3, #4]
 800044a:	f107 0208 	add.w	r2, r7, #8
 800044e:	4611      	mov	r1, r2
 8000450:	4618      	mov	r0, r3
 8000452:	f000 fbcc 	bl	8000bee <MCAL_GPIO_Init>
 8000456:	687b      	ldr	r3, [r7, #4]
 8000458:	881b      	ldrh	r3, [r3, #0]
 800045a:	089b      	lsrs	r3, r3, #2
 800045c:	b29b      	uxth	r3, r3
 800045e:	73fb      	strb	r3, [r7, #15]
 8000460:	687b      	ldr	r3, [r7, #4]
 8000462:	881b      	ldrh	r3, [r3, #0]
 8000464:	b2db      	uxtb	r3, r3
 8000466:	f003 0303 	and.w	r3, r3, #3
 800046a:	b2db      	uxtb	r3, r3
 800046c:	009b      	lsls	r3, r3, #2
 800046e:	73bb      	strb	r3, [r7, #14]
 8000470:	4a5f      	ldr	r2, [pc, #380]	; (80005f0 <Update_EXTI+0x1bc>)
 8000472:	7bfb      	ldrb	r3, [r7, #15]
 8000474:	3302      	adds	r3, #2
 8000476:	f852 2023 	ldr.w	r2, [r2, r3, lsl #2]
 800047a:	7bbb      	ldrb	r3, [r7, #14]
 800047c:	210f      	movs	r1, #15
 800047e:	fa01 f303 	lsl.w	r3, r1, r3
 8000482:	43db      	mvns	r3, r3
 8000484:	4618      	mov	r0, r3
 8000486:	495a      	ldr	r1, [pc, #360]	; (80005f0 <Update_EXTI+0x1bc>)
 8000488:	7bfb      	ldrb	r3, [r7, #15]
 800048a:	4002      	ands	r2, r0
 800048c:	3302      	adds	r3, #2
 800048e:	f841 2023 	str.w	r2, [r1, r3, lsl #2]
 8000492:	4a57      	ldr	r2, [pc, #348]	; (80005f0 <Update_EXTI+0x1bc>)
 8000494:	7bfb      	ldrb	r3, [r7, #15]
 8000496:	3302      	adds	r3, #2
 8000498:	f852 2023 	ldr.w	r2, [r2, r3, lsl #2]
 800049c:	687b      	ldr	r3, [r7, #4]
 800049e:	685b      	ldr	r3, [r3, #4]
 80004a0:	4954      	ldr	r1, [pc, #336]	; (80005f4 <Update_EXTI+0x1c0>)
 80004a2:	428b      	cmp	r3, r1
 80004a4:	d016      	beq.n	80004d4 <Update_EXTI+0xa0>
 80004a6:	687b      	ldr	r3, [r7, #4]
 80004a8:	685b      	ldr	r3, [r3, #4]
 80004aa:	4953      	ldr	r1, [pc, #332]	; (80005f8 <Update_EXTI+0x1c4>)
 80004ac:	428b      	cmp	r3, r1
 80004ae:	d00f      	beq.n	80004d0 <Update_EXTI+0x9c>
 80004b0:	687b      	ldr	r3, [r7, #4]
 80004b2:	685b      	ldr	r3, [r3, #4]
 80004b4:	4951      	ldr	r1, [pc, #324]	; (80005fc <Update_EXTI+0x1c8>)
 80004b6:	428b      	cmp	r3, r1
 80004b8:	d008      	beq.n	80004cc <Update_EXTI+0x98>
 80004ba:	687b      	ldr	r3, [r7, #4]
 80004bc:	685b      	ldr	r3, [r3, #4]
 80004be:	4950      	ldr	r1, [pc, #320]	; (8000600 <Update_EXTI+0x1cc>)
 80004c0:	428b      	cmp	r3, r1
 80004c2:	d101      	bne.n	80004c8 <Update_EXTI+0x94>
 80004c4:	2303      	movs	r3, #3
 80004c6:	e006      	b.n	80004d6 <Update_EXTI+0xa2>
 80004c8:	2300      	movs	r3, #0
 80004ca:	e004      	b.n	80004d6 <Update_EXTI+0xa2>
 80004cc:	2302      	movs	r3, #2
 80004ce:	e002      	b.n	80004d6 <Update_EXTI+0xa2>
 80004d0:	2301      	movs	r3, #1
 80004d2:	e000      	b.n	80004d6 <Update_EXTI+0xa2>
 80004d4:	2300      	movs	r3, #0
 80004d6:	7bb9      	ldrb	r1, [r7, #14]
 80004d8:	408b      	lsls	r3, r1
 80004da:	4618      	mov	r0, r3
 80004dc:	4944      	ldr	r1, [pc, #272]	; (80005f0 <Update_EXTI+0x1bc>)
 80004de:	7bfb      	ldrb	r3, [r7, #15]
 80004e0:	4302      	orrs	r2, r0
 80004e2:	3302      	adds	r3, #2
 80004e4:	f841 2023 	str.w	r2, [r1, r3, lsl #2]
 80004e8:	4b46      	ldr	r3, [pc, #280]	; (8000604 <Update_EXTI+0x1d0>)
 80004ea:	689b      	ldr	r3, [r3, #8]
 80004ec:	687a      	ldr	r2, [r7, #4]
 80004ee:	8812      	ldrh	r2, [r2, #0]
 80004f0:	4611      	mov	r1, r2
 80004f2:	2201      	movs	r2, #1
 80004f4:	408a      	lsls	r2, r1
 80004f6:	43d2      	mvns	r2, r2
 80004f8:	4611      	mov	r1, r2
 80004fa:	4a42      	ldr	r2, [pc, #264]	; (8000604 <Update_EXTI+0x1d0>)
 80004fc:	400b      	ands	r3, r1
 80004fe:	6093      	str	r3, [r2, #8]
 8000500:	4b40      	ldr	r3, [pc, #256]	; (8000604 <Update_EXTI+0x1d0>)
 8000502:	68db      	ldr	r3, [r3, #12]
 8000504:	687a      	ldr	r2, [r7, #4]
 8000506:	8812      	ldrh	r2, [r2, #0]
 8000508:	4611      	mov	r1, r2
 800050a:	2201      	movs	r2, #1
 800050c:	408a      	lsls	r2, r1
 800050e:	43d2      	mvns	r2, r2
 8000510:	4611      	mov	r1, r2
 8000512:	4a3c      	ldr	r2, [pc, #240]	; (8000604 <Update_EXTI+0x1d0>)
 8000514:	400b      	ands	r3, r1
 8000516:	60d3      	str	r3, [r2, #12]
 8000518:	687b      	ldr	r3, [r7, #4]
 800051a:	7b1b      	ldrb	r3, [r3, #12]
 800051c:	2b00      	cmp	r3, #0
 800051e:	d10b      	bne.n	8000538 <Update_EXTI+0x104>
 8000520:	4b38      	ldr	r3, [pc, #224]	; (8000604 <Update_EXTI+0x1d0>)
 8000522:	689b      	ldr	r3, [r3, #8]
 8000524:	687a      	ldr	r2, [r7, #4]
 8000526:	8812      	ldrh	r2, [r2, #0]
 8000528:	4611      	mov	r1, r2
 800052a:	2201      	movs	r2, #1
 800052c:	408a      	lsls	r2, r1
 800052e:	4611      	mov	r1, r2
 8000530:	4a34      	ldr	r2, [pc, #208]	; (8000604 <Update_EXTI+0x1d0>)
 8000532:	430b      	orrs	r3, r1
 8000534:	6093      	str	r3, [r2, #8]
 8000536:	e029      	b.n	800058c <Update_EXTI+0x158>
 8000538:	687b      	ldr	r3, [r7, #4]
 800053a:	7b1b      	ldrb	r3, [r3, #12]
 800053c:	2b01      	cmp	r3, #1
 800053e:	d10b      	bne.n	8000558 <Update_EXTI+0x124>
 8000540:	4b30      	ldr	r3, [pc, #192]	; (8000604 <Update_EXTI+0x1d0>)
 8000542:	68db      	ldr	r3, [r3, #12]
 8000544:	687a      	ldr	r2, [r7, #4]
 8000546:	8812      	ldrh	r2, [r2, #0]
 8000548:	4611      	mov	r1, r2
 800054a:	2201      	movs	r2, #1
 800054c:	408a      	lsls	r2, r1
 800054e:	4611      	mov	r1, r2
 8000550:	4a2c      	ldr	r2, [pc, #176]	; (8000604 <Update_EXTI+0x1d0>)
 8000552:	430b      	orrs	r3, r1
 8000554:	60d3      	str	r3, [r2, #12]
 8000556:	e019      	b.n	800058c <Update_EXTI+0x158>
 8000558:	687b      	ldr	r3, [r7, #4]
 800055a:	7b1b      	ldrb	r3, [r3, #12]
 800055c:	2b02      	cmp	r3, #2
 800055e:	d115      	bne.n	800058c <Update_EXTI+0x158>
 8000560:	4b28      	ldr	r3, [pc, #160]	; (8000604 <Update_EXTI+0x1d0>)
 8000562:	689b      	ldr	r3, [r3, #8]
 8000564:	687a      	ldr	r2, [r7, #4]
 8000566:	8812      	ldrh	r2, [r2, #0]
 8000568:	4611      	mov	r1, r2
 800056a:	2201      	movs	r2, #1
 800056c:	408a      	lsls	r2, r1
 800056e:	4611      	mov	r1, r2
 8000570:	4a24      	ldr	r2, [pc, #144]	; (8000604 <Update_EXTI+0x1d0>)
 8000572:	430b      	orrs	r3, r1
 8000574:	6093      	str	r3, [r2, #8]
 8000576:	4b23      	ldr	r3, [pc, #140]	; (8000604 <Update_EXTI+0x1d0>)
 8000578:	68db      	ldr	r3, [r3, #12]
 800057a:	687a      	ldr	r2, [r7, #4]
 800057c:	8812      	ldrh	r2, [r2, #0]
 800057e:	4611      	mov	r1, r2
 8000580:	2201      	movs	r2, #1
 8000582:	408a      	lsls	r2, r1
 8000584:	4611      	mov	r1, r2
 8000586:	4a1f      	ldr	r2, [pc, #124]	; (8000604 <Update_EXTI+0x1d0>)
 8000588:	430b      	orrs	r3, r1
 800058a:	60d3      	str	r3, [r2, #12]
 800058c:	687b      	ldr	r3, [r7, #4]
 800058e:	881b      	ldrh	r3, [r3, #0]
 8000590:	4619      	mov	r1, r3
 8000592:	687b      	ldr	r3, [r7, #4]
 8000594:	691b      	ldr	r3, [r3, #16]
 8000596:	4a1c      	ldr	r2, [pc, #112]	; (8000608 <Update_EXTI+0x1d4>)
 8000598:	f842 3021 	str.w	r3, [r2, r1, lsl #2]
 800059c:	687b      	ldr	r3, [r7, #4]
 800059e:	7b5b      	ldrb	r3, [r3, #13]
 80005a0:	2b01      	cmp	r3, #1
 80005a2:	d110      	bne.n	80005c6 <Update_EXTI+0x192>
 80005a4:	4b17      	ldr	r3, [pc, #92]	; (8000604 <Update_EXTI+0x1d0>)
 80005a6:	681b      	ldr	r3, [r3, #0]
 80005a8:	687a      	ldr	r2, [r7, #4]
 80005aa:	8812      	ldrh	r2, [r2, #0]
 80005ac:	4611      	mov	r1, r2
 80005ae:	2201      	movs	r2, #1
 80005b0:	408a      	lsls	r2, r1
 80005b2:	4611      	mov	r1, r2
 80005b4:	4a13      	ldr	r2, [pc, #76]	; (8000604 <Update_EXTI+0x1d0>)
 80005b6:	430b      	orrs	r3, r1
 80005b8:	6013      	str	r3, [r2, #0]
 80005ba:	687b      	ldr	r3, [r7, #4]
 80005bc:	881b      	ldrh	r3, [r3, #0]
 80005be:	4618      	mov	r0, r3
 80005c0:	f7ff fe6c 	bl	800029c <Enable_NVIC>
 80005c4:	e010      	b.n	80005e8 <Update_EXTI+0x1b4>
 80005c6:	4b0f      	ldr	r3, [pc, #60]	; (8000604 <Update_EXTI+0x1d0>)
 80005c8:	681b      	ldr	r3, [r3, #0]
 80005ca:	687a      	ldr	r2, [r7, #4]
 80005cc:	8812      	ldrh	r2, [r2, #0]
 80005ce:	4611      	mov	r1, r2
 80005d0:	2201      	movs	r2, #1
 80005d2:	408a      	lsls	r2, r1
 80005d4:	43d2      	mvns	r2, r2
 80005d6:	4611      	mov	r1, r2
 80005d8:	4a0a      	ldr	r2, [pc, #40]	; (8000604 <Update_EXTI+0x1d0>)
 80005da:	400b      	ands	r3, r1
 80005dc:	6013      	str	r3, [r2, #0]
 80005de:	687b      	ldr	r3, [r7, #4]
 80005e0:	881b      	ldrh	r3, [r3, #0]
 80005e2:	4618      	mov	r0, r3
 80005e4:	f7ff fec0 	bl	8000368 <Disable_NVIC>
 80005e8:	bf00      	nop
 80005ea:	3710      	adds	r7, #16
 80005ec:	46bd      	mov	sp, r7
 80005ee:	bd80      	pop	{r7, pc}
 80005f0:	40010000 	andmi	r0, r1, r0
 80005f4:	40010800 	andmi	r0, r1, r0, lsl #16
 80005f8:	40010c00 	andmi	r0, r1, r0, lsl #24
 80005fc:	40011000 	andmi	r1, r1, r0
 8000600:	40011400 	andmi	r1, r1, r0, lsl #8
 8000604:	40010400 	andmi	r0, r1, r0, lsl #8
 8000608:	20000074 	andcs	r0, r0, r4, ror r0

0800060c <MCAL_EXTI_GPIO_Init>:
 800060c:	b580      	push	{r7, lr}
 800060e:	b082      	sub	sp, #8
 8000610:	af00      	add	r7, sp, #0
 8000612:	6078      	str	r0, [r7, #4]
 8000614:	6878      	ldr	r0, [r7, #4]
 8000616:	f7ff ff0d 	bl	8000434 <Update_EXTI>
 800061a:	bf00      	nop
 800061c:	3708      	adds	r7, #8
 800061e:	46bd      	mov	sp, r7
 8000620:	bd80      	pop	{r7, pc}
	...

08000624 <EXTI0_IRQHandler>:
 8000624:	b580      	push	{r7, lr}
 8000626:	af00      	add	r7, sp, #0
 8000628:	4b05      	ldr	r3, [pc, #20]	; (8000640 <EXTI0_IRQHandler+0x1c>)
 800062a:	695b      	ldr	r3, [r3, #20]
 800062c:	4a04      	ldr	r2, [pc, #16]	; (8000640 <EXTI0_IRQHandler+0x1c>)
 800062e:	f043 0301 	orr.w	r3, r3, #1
 8000632:	6153      	str	r3, [r2, #20]
 8000634:	4b03      	ldr	r3, [pc, #12]	; (8000644 <EXTI0_IRQHandler+0x20>)
 8000636:	681b      	ldr	r3, [r3, #0]
 8000638:	4798      	blx	r3
 800063a:	bf00      	nop
 800063c:	bd80      	pop	{r7, pc}
 800063e:	bf00      	nop
 8000640:	40010400 	andmi	r0, r1, r0, lsl #8
 8000644:	20000074 	andcs	r0, r0, r4, ror r0

08000648 <EXTI1_IRQHandler>:
 8000648:	b580      	push	{r7, lr}
 800064a:	af00      	add	r7, sp, #0
 800064c:	4b05      	ldr	r3, [pc, #20]	; (8000664 <EXTI1_IRQHandler+0x1c>)
 800064e:	695b      	ldr	r3, [r3, #20]
 8000650:	4a04      	ldr	r2, [pc, #16]	; (8000664 <EXTI1_IRQHandler+0x1c>)
 8000652:	f043 0302 	orr.w	r3, r3, #2
 8000656:	6153      	str	r3, [r2, #20]
 8000658:	4b03      	ldr	r3, [pc, #12]	; (8000668 <EXTI1_IRQHandler+0x20>)
 800065a:	685b      	ldr	r3, [r3, #4]
 800065c:	4798      	blx	r3
 800065e:	bf00      	nop
 8000660:	bd80      	pop	{r7, pc}
 8000662:	bf00      	nop
 8000664:	40010400 	andmi	r0, r1, r0, lsl #8
 8000668:	20000074 	andcs	r0, r0, r4, ror r0

0800066c <EXTI2_IRQHandler>:
 800066c:	b580      	push	{r7, lr}
 800066e:	af00      	add	r7, sp, #0
 8000670:	4b05      	ldr	r3, [pc, #20]	; (8000688 <EXTI2_IRQHandler+0x1c>)
 8000672:	695b      	ldr	r3, [r3, #20]
 8000674:	4a04      	ldr	r2, [pc, #16]	; (8000688 <EXTI2_IRQHandler+0x1c>)
 8000676:	f043 0304 	orr.w	r3, r3, #4
 800067a:	6153      	str	r3, [r2, #20]
 800067c:	4b03      	ldr	r3, [pc, #12]	; (800068c <EXTI2_IRQHandler+0x20>)
 800067e:	689b      	ldr	r3, [r3, #8]
 8000680:	4798      	blx	r3
 8000682:	bf00      	nop
 8000684:	bd80      	pop	{r7, pc}
 8000686:	bf00      	nop
 8000688:	40010400 	andmi	r0, r1, r0, lsl #8
 800068c:	20000074 	andcs	r0, r0, r4, ror r0

08000690 <EXTI3_IRQHandler>:
 8000690:	b580      	push	{r7, lr}
 8000692:	af00      	add	r7, sp, #0
 8000694:	4b05      	ldr	r3, [pc, #20]	; (80006ac <EXTI3_IRQHandler+0x1c>)
 8000696:	695b      	ldr	r3, [r3, #20]
 8000698:	4a04      	ldr	r2, [pc, #16]	; (80006ac <EXTI3_IRQHandler+0x1c>)
 800069a:	f043 0308 	orr.w	r3, r3, #8
 800069e:	6153      	str	r3, [r2, #20]
 80006a0:	4b03      	ldr	r3, [pc, #12]	; (80006b0 <EXTI3_IRQHandler+0x20>)
 80006a2:	68db      	ldr	r3, [r3, #12]
 80006a4:	4798      	blx	r3
 80006a6:	bf00      	nop
 80006a8:	bd80      	pop	{r7, pc}
 80006aa:	bf00      	nop
 80006ac:	40010400 	andmi	r0, r1, r0, lsl #8
 80006b0:	20000074 	andcs	r0, r0, r4, ror r0

080006b4 <EXTI4_IRQHandler>:
 80006b4:	b580      	push	{r7, lr}
 80006b6:	af00      	add	r7, sp, #0
 80006b8:	4b05      	ldr	r3, [pc, #20]	; (80006d0 <EXTI4_IRQHandler+0x1c>)
 80006ba:	695b      	ldr	r3, [r3, #20]
 80006bc:	4a04      	ldr	r2, [pc, #16]	; (80006d0 <EXTI4_IRQHandler+0x1c>)
 80006be:	f043 0310 	orr.w	r3, r3, #16
 80006c2:	6153      	str	r3, [r2, #20]
 80006c4:	4b03      	ldr	r3, [pc, #12]	; (80006d4 <EXTI4_IRQHandler+0x20>)
 80006c6:	691b      	ldr	r3, [r3, #16]
 80006c8:	4798      	blx	r3
 80006ca:	bf00      	nop
 80006cc:	bd80      	pop	{r7, pc}
 80006ce:	bf00      	nop
 80006d0:	40010400 	andmi	r0, r1, r0, lsl #8
 80006d4:	20000074 	andcs	r0, r0, r4, ror r0

080006d8 <EXTI9_5_IRQHandler>:
 80006d8:	b580      	push	{r7, lr}
 80006da:	af00      	add	r7, sp, #0
 80006dc:	4b26      	ldr	r3, [pc, #152]	; (8000778 <EXTI9_5_IRQHandler+0xa0>)
 80006de:	695b      	ldr	r3, [r3, #20]
 80006e0:	f003 0320 	and.w	r3, r3, #32
 80006e4:	2b00      	cmp	r3, #0
 80006e6:	d008      	beq.n	80006fa <EXTI9_5_IRQHandler+0x22>
 80006e8:	4b23      	ldr	r3, [pc, #140]	; (8000778 <EXTI9_5_IRQHandler+0xa0>)
 80006ea:	695b      	ldr	r3, [r3, #20]
 80006ec:	4a22      	ldr	r2, [pc, #136]	; (8000778 <EXTI9_5_IRQHandler+0xa0>)
 80006ee:	f043 0320 	orr.w	r3, r3, #32
 80006f2:	6153      	str	r3, [r2, #20]
 80006f4:	4b21      	ldr	r3, [pc, #132]	; (800077c <EXTI9_5_IRQHandler+0xa4>)
 80006f6:	695b      	ldr	r3, [r3, #20]
 80006f8:	4798      	blx	r3
 80006fa:	4b1f      	ldr	r3, [pc, #124]	; (8000778 <EXTI9_5_IRQHandler+0xa0>)
 80006fc:	695b      	ldr	r3, [r3, #20]
 80006fe:	f003 0340 	and.w	r3, r3, #64	; 0x40
 8000702:	2b00      	cmp	r3, #0
 8000704:	d008      	beq.n	8000718 <EXTI9_5_IRQHandler+0x40>
 8000706:	4b1c      	ldr	r3, [pc, #112]	; (8000778 <EXTI9_5_IRQHandler+0xa0>)
 8000708:	695b      	ldr	r3, [r3, #20]
 800070a:	4a1b      	ldr	r2, [pc, #108]	; (8000778 <EXTI9_5_IRQHandler+0xa0>)
 800070c:	f043 0340 	orr.w	r3, r3, #64	; 0x40
 8000710:	6153      	str	r3, [r2, #20]
 8000712:	4b1a      	ldr	r3, [pc, #104]	; (800077c <EXTI9_5_IRQHandler+0xa4>)
 8000714:	699b      	ldr	r3, [r3, #24]
 8000716:	4798      	blx	r3
 8000718:	4b17      	ldr	r3, [pc, #92]	; (8000778 <EXTI9_5_IRQHandler+0xa0>)
 800071a:	695b      	ldr	r3, [r3, #20]
 800071c:	f003 0380 	and.w	r3, r3, #128	; 0x80
 8000720:	2b00      	cmp	r3, #0
 8000722:	d008      	beq.n	8000736 <EXTI9_5_IRQHandler+0x5e>
 8000724:	4b14      	ldr	r3, [pc, #80]	; (8000778 <EXTI9_5_IRQHandler+0xa0>)
 8000726:	695b      	ldr	r3, [r3, #20]
 8000728:	4a13      	ldr	r2, [pc, #76]	; (8000778 <EXTI9_5_IRQHandler+0xa0>)
 800072a:	f043 0380 	orr.w	r3, r3, #128	; 0x80
 800072e:	6153      	str	r3, [r2, #20]
 8000730:	4b12      	ldr	r3, [pc, #72]	; (800077c <EXTI9_5_IRQHandler+0xa4>)
 8000732:	69db      	ldr	r3, [r3, #28]
 8000734:	4798      	blx	r3
 8000736:	4b10      	ldr	r3, [pc, #64]	; (8000778 <EXTI9_5_IRQHandler+0xa0>)
 8000738:	695b      	ldr	r3, [r3, #20]
 800073a:	f403 7380 	and.w	r3, r3, #256	; 0x100
 800073e:	2b00      	cmp	r3, #0
 8000740:	d008      	beq.n	8000754 <EXTI9_5_IRQHandler+0x7c>
 8000742:	4b0d      	ldr	r3, [pc, #52]	; (8000778 <EXTI9_5_IRQHandler+0xa0>)
 8000744:	695b      	ldr	r3, [r3, #20]
 8000746:	4a0c      	ldr	r2, [pc, #48]	; (8000778 <EXTI9_5_IRQHandler+0xa0>)
 8000748:	f443 7380 	orr.w	r3, r3, #256	; 0x100
 800074c:	6153      	str	r3, [r2, #20]
 800074e:	4b0b      	ldr	r3, [pc, #44]	; (800077c <EXTI9_5_IRQHandler+0xa4>)
 8000750:	6a1b      	ldr	r3, [r3, #32]
 8000752:	4798      	blx	r3
 8000754:	4b08      	ldr	r3, [pc, #32]	; (8000778 <EXTI9_5_IRQHandler+0xa0>)
 8000756:	695b      	ldr	r3, [r3, #20]
 8000758:	f403 7300 	and.w	r3, r3, #512	; 0x200
 800075c:	2b00      	cmp	r3, #0
 800075e:	d008      	beq.n	8000772 <EXTI9_5_IRQHandler+0x9a>
 8000760:	4b05      	ldr	r3, [pc, #20]	; (8000778 <EXTI9_5_IRQHandler+0xa0>)
 8000762:	695b      	ldr	r3, [r3, #20]
 8000764:	4a04      	ldr	r2, [pc, #16]	; (8000778 <EXTI9_5_IRQHandler+0xa0>)
 8000766:	f443 7300 	orr.w	r3, r3, #512	; 0x200
 800076a:	6153      	str	r3, [r2, #20]
 800076c:	4b03      	ldr	r3, [pc, #12]	; (800077c <EXTI9_5_IRQHandler+0xa4>)
 800076e:	6a5b      	ldr	r3, [r3, #36]	; 0x24
 8000770:	4798      	blx	r3
 8000772:	bf00      	nop
 8000774:	bd80      	pop	{r7, pc}
 8000776:	bf00      	nop
 8000778:	40010400 	andmi	r0, r1, r0, lsl #8
 800077c:	20000074 	andcs	r0, r0, r4, ror r0

08000780 <EXTI15_10_IRQHandler>:
 8000780:	b580      	push	{r7, lr}
 8000782:	af00      	add	r7, sp, #0
 8000784:	4b2d      	ldr	r3, [pc, #180]	; (800083c <EXTI15_10_IRQHandler+0xbc>)
 8000786:	695b      	ldr	r3, [r3, #20]
 8000788:	f403 6380 	and.w	r3, r3, #1024	; 0x400
 800078c:	2b00      	cmp	r3, #0
 800078e:	d008      	beq.n	80007a2 <EXTI15_10_IRQHandler+0x22>
 8000790:	4b2a      	ldr	r3, [pc, #168]	; (800083c <EXTI15_10_IRQHandler+0xbc>)
 8000792:	695b      	ldr	r3, [r3, #20]
 8000794:	4a29      	ldr	r2, [pc, #164]	; (800083c <EXTI15_10_IRQHandler+0xbc>)
 8000796:	f443 6380 	orr.w	r3, r3, #1024	; 0x400
 800079a:	6153      	str	r3, [r2, #20]
 800079c:	4b28      	ldr	r3, [pc, #160]	; (8000840 <EXTI15_10_IRQHandler+0xc0>)
 800079e:	6a9b      	ldr	r3, [r3, #40]	; 0x28
 80007a0:	4798      	blx	r3
 80007a2:	4b26      	ldr	r3, [pc, #152]	; (800083c <EXTI15_10_IRQHandler+0xbc>)
 80007a4:	695b      	ldr	r3, [r3, #20]
 80007a6:	f403 6300 	and.w	r3, r3, #2048	; 0x800
 80007aa:	2b00      	cmp	r3, #0
 80007ac:	d008      	beq.n	80007c0 <EXTI15_10_IRQHandler+0x40>
 80007ae:	4b23      	ldr	r3, [pc, #140]	; (800083c <EXTI15_10_IRQHandler+0xbc>)
 80007b0:	695b      	ldr	r3, [r3, #20]
 80007b2:	4a22      	ldr	r2, [pc, #136]	; (800083c <EXTI15_10_IRQHandler+0xbc>)
 80007b4:	f443 6300 	orr.w	r3, r3, #2048	; 0x800
 80007b8:	6153      	str	r3, [r2, #20]
 80007ba:	4b21      	ldr	r3, [pc, #132]	; (8000840 <EXTI15_10_IRQHandler+0xc0>)
 80007bc:	6adb      	ldr	r3, [r3, #44]	; 0x2c
 80007be:	4798      	blx	r3
 80007c0:	4b1e      	ldr	r3, [pc, #120]	; (800083c <EXTI15_10_IRQHandler+0xbc>)
 80007c2:	695b      	ldr	r3, [r3, #20]
 80007c4:	f403 5380 	and.w	r3, r3, #4096	; 0x1000
 80007c8:	2b00      	cmp	r3, #0
 80007ca:	d008      	beq.n	80007de <EXTI15_10_IRQHandler+0x5e>
 80007cc:	4b1b      	ldr	r3, [pc, #108]	; (800083c <EXTI15_10_IRQHandler+0xbc>)
 80007ce:	695b      	ldr	r3, [r3, #20]
 80007d0:	4a1a      	ldr	r2, [pc, #104]	; (800083c <EXTI15_10_IRQHandler+0xbc>)
 80007d2:	f443 5380 	orr.w	r3, r3, #4096	; 0x1000
 80007d6:	6153      	str	r3, [r2, #20]
 80007d8:	4b19      	ldr	r3, [pc, #100]	; (8000840 <EXTI15_10_IRQHandler+0xc0>)
 80007da:	6b1b      	ldr	r3, [r3, #48]	; 0x30
 80007dc:	4798      	blx	r3
 80007de:	4b17      	ldr	r3, [pc, #92]	; (800083c <EXTI15_10_IRQHandler+0xbc>)
 80007e0:	695b      	ldr	r3, [r3, #20]
 80007e2:	f403 5300 	and.w	r3, r3, #8192	; 0x2000
 80007e6:	2b00      	cmp	r3, #0
 80007e8:	d008      	beq.n	80007fc <EXTI15_10_IRQHandler+0x7c>
 80007ea:	4b14      	ldr	r3, [pc, #80]	; (800083c <EXTI15_10_IRQHandler+0xbc>)
 80007ec:	695b      	ldr	r3, [r3, #20]
 80007ee:	4a13      	ldr	r2, [pc, #76]	; (800083c <EXTI15_10_IRQHandler+0xbc>)
 80007f0:	f443 5300 	orr.w	r3, r3, #8192	; 0x2000
 80007f4:	6153      	str	r3, [r2, #20]
 80007f6:	4b12      	ldr	r3, [pc, #72]	; (8000840 <EXTI15_10_IRQHandler+0xc0>)
 80007f8:	6b5b      	ldr	r3, [r3, #52]	; 0x34
 80007fa:	4798      	blx	r3
 80007fc:	4b0f      	ldr	r3, [pc, #60]	; (800083c <EXTI15_10_IRQHandler+0xbc>)
 80007fe:	695b      	ldr	r3, [r3, #20]
 8000800:	f403 4380 	and.w	r3, r3, #16384	; 0x4000
 8000804:	2b00      	cmp	r3, #0
 8000806:	d008      	beq.n	800081a <EXTI15_10_IRQHandler+0x9a>
 8000808:	4b0c      	ldr	r3, [pc, #48]	; (800083c <EXTI15_10_IRQHandler+0xbc>)
 800080a:	695b      	ldr	r3, [r3, #20]
 800080c:	4a0b      	ldr	r2, [pc, #44]	; (800083c <EXTI15_10_IRQHandler+0xbc>)
 800080e:	f443 4380 	orr.w	r3, r3, #16384	; 0x4000
 8000812:	6153      	str	r3, [r2, #20]
 8000814:	4b0a      	ldr	r3, [pc, #40]	; (8000840 <EXTI15_10_IRQHandler+0xc0>)
 8000816:	6b9b      	ldr	r3, [r3, #56]	; 0x38
 8000818:	4798      	blx	r3
 800081a:	4b08      	ldr	r3, [pc, #32]	; (800083c <EXTI15_10_IRQHandler+0xbc>)
 800081c:	695b      	ldr	r3, [r3, #20]
 800081e:	f403 4300 	and.w	r3, r3, #32768	; 0x8000
 8000822:	2b00      	cmp	r3, #0
 8000824:	d008      	beq.n	8000838 <EXTI15_10_IRQHandler+0xb8>
 8000826:	4b05      	ldr	r3, [pc, #20]	; (800083c <EXTI15_10_IRQHandler+0xbc>)
 8000828:	695b      	ldr	r3, [r3, #20]
 800082a:	4a04      	ldr	r2, [pc, #16]	; (800083c <EXTI15_10_IRQHandler+0xbc>)
 800082c:	f443 4300 	orr.w	r3, r3, #32768	; 0x8000
 8000830:	6153      	str	r3, [r2, #20]
 8000832:	4b03      	ldr	r3, [pc, #12]	; (8000840 <EXTI15_10_IRQHandler+0xc0>)
 8000834:	6bdb      	ldr	r3, [r3, #60]	; 0x3c
 8000836:	4798      	blx	r3
 8000838:	bf00      	nop
 800083a:	bd80      	pop	{r7, pc}
 800083c:	40010400 	andmi	r0, r1, r0, lsl #8
 8000840:	20000074 	andcs	r0, r0, r4, ror r0

08000844 <I2C1_ER_IRQHandler>:
 8000844:	b480      	push	{r7}
 8000846:	af00      	add	r7, sp, #0
 8000848:	bf00      	nop
 800084a:	46bd      	mov	sp, r7
 800084c:	bc80      	pop	{r7}
 800084e:	4770      	bx	lr

08000850 <I2C1_EV_IRQHandler>:
 8000850:	b580      	push	{r7, lr}
 8000852:	b086      	sub	sp, #24
 8000854:	af00      	add	r7, sp, #0
 8000856:	2300      	movs	r3, #0
 8000858:	607b      	str	r3, [r7, #4]
 800085a:	4b37      	ldr	r3, [pc, #220]	; (8000938 <I2C1_EV_IRQHandler+0xe8>)
 800085c:	617b      	str	r3, [r7, #20]
 800085e:	697b      	ldr	r3, [r7, #20]
 8000860:	685b      	ldr	r3, [r3, #4]
 8000862:	f403 7300 	and.w	r3, r3, #512	; 0x200
 8000866:	613b      	str	r3, [r7, #16]
 8000868:	697b      	ldr	r3, [r7, #20]
 800086a:	685b      	ldr	r3, [r3, #4]
 800086c:	f403 6380 	and.w	r3, r3, #1024	; 0x400
 8000870:	60fb      	str	r3, [r7, #12]
 8000872:	697b      	ldr	r3, [r7, #20]
 8000874:	695b      	ldr	r3, [r3, #20]
 8000876:	f003 0310 	and.w	r3, r3, #16
 800087a:	60bb      	str	r3, [r7, #8]
 800087c:	693b      	ldr	r3, [r7, #16]
 800087e:	2b00      	cmp	r3, #0
 8000880:	d00a      	beq.n	8000898 <I2C1_EV_IRQHandler+0x48>
 8000882:	68bb      	ldr	r3, [r7, #8]
 8000884:	2b00      	cmp	r3, #0
 8000886:	d007      	beq.n	8000898 <I2C1_EV_IRQHandler+0x48>
 8000888:	697b      	ldr	r3, [r7, #20]
 800088a:	681a      	ldr	r2, [r3, #0]
 800088c:	697b      	ldr	r3, [r7, #20]
 800088e:	601a      	str	r2, [r3, #0]
 8000890:	2100      	movs	r1, #0
 8000892:	6978      	ldr	r0, [r7, #20]
 8000894:	f000 f852 	bl	800093c <Slave_States>
 8000898:	697b      	ldr	r3, [r7, #20]
 800089a:	695b      	ldr	r3, [r3, #20]
 800089c:	f003 0302 	and.w	r3, r3, #2
 80008a0:	60bb      	str	r3, [r7, #8]
 80008a2:	693b      	ldr	r3, [r7, #16]
 80008a4:	2b00      	cmp	r3, #0
 80008a6:	d012      	beq.n	80008ce <I2C1_EV_IRQHandler+0x7e>
 80008a8:	68bb      	ldr	r3, [r7, #8]
 80008aa:	2b00      	cmp	r3, #0
 80008ac:	d00f      	beq.n	80008ce <I2C1_EV_IRQHandler+0x7e>
 80008ae:	697b      	ldr	r3, [r7, #20]
 80008b0:	699b      	ldr	r3, [r3, #24]
 80008b2:	f003 0301 	and.w	r3, r3, #1
 80008b6:	2b00      	cmp	r3, #0
 80008b8:	d109      	bne.n	80008ce <I2C1_EV_IRQHandler+0x7e>
 80008ba:	697b      	ldr	r3, [r7, #20]
 80008bc:	695b      	ldr	r3, [r3, #20]
 80008be:	607b      	str	r3, [r7, #4]
 80008c0:	697b      	ldr	r3, [r7, #20]
 80008c2:	699b      	ldr	r3, [r3, #24]
 80008c4:	607b      	str	r3, [r7, #4]
 80008c6:	2102      	movs	r1, #2
 80008c8:	6978      	ldr	r0, [r7, #20]
 80008ca:	f000 f837 	bl	800093c <Slave_States>
 80008ce:	697b      	ldr	r3, [r7, #20]
 80008d0:	695b      	ldr	r3, [r3, #20]
 80008d2:	f003 0380 	and.w	r3, r3, #128	; 0x80
 80008d6:	60bb      	str	r3, [r7, #8]
 80008d8:	693b      	ldr	r3, [r7, #16]
 80008da:	2b00      	cmp	r3, #0
 80008dc:	d00f      	beq.n	80008fe <I2C1_EV_IRQHandler+0xae>
 80008de:	68fb      	ldr	r3, [r7, #12]
 80008e0:	2b00      	cmp	r3, #0
 80008e2:	d00c      	beq.n	80008fe <I2C1_EV_IRQHandler+0xae>
 80008e4:	68bb      	ldr	r3, [r7, #8]
 80008e6:	2b00      	cmp	r3, #0
 80008e8:	d009      	beq.n	80008fe <I2C1_EV_IRQHandler+0xae>
 80008ea:	697b      	ldr	r3, [r7, #20]
 80008ec:	699b      	ldr	r3, [r3, #24]
 80008ee:	f003 0301 	and.w	r3, r3, #1
 80008f2:	2b00      	cmp	r3, #0
 80008f4:	d103      	bne.n	80008fe <I2C1_EV_IRQHandler+0xae>
 80008f6:	2103      	movs	r1, #3
 80008f8:	6978      	ldr	r0, [r7, #20]
 80008fa:	f000 f81f 	bl	800093c <Slave_States>
 80008fe:	697b      	ldr	r3, [r7, #20]
 8000900:	695b      	ldr	r3, [r3, #20]
 8000902:	f003 0340 	and.w	r3, r3, #64	; 0x40
 8000906:	60bb      	str	r3, [r7, #8]
 8000908:	693b      	ldr	r3, [r7, #16]
 800090a:	2b00      	cmp	r3, #0
 800090c:	d00f      	beq.n	800092e <I2C1_EV_IRQHandler+0xde>
 800090e:	68fb      	ldr	r3, [r7, #12]
 8000910:	2b00      	cmp	r3, #0
 8000912:	d00c      	beq.n	800092e <I2C1_EV_IRQHandler+0xde>
 8000914:	68bb      	ldr	r3, [r7, #8]
 8000916:	2b00      	cmp	r3, #0
 8000918:	d009      	beq.n	800092e <I2C1_EV_IRQHandler+0xde>
 800091a:	697b      	ldr	r3, [r7, #20]
 800091c:	699b      	ldr	r3, [r3, #24]
 800091e:	f003 0301 	and.w	r3, r3, #1
 8000922:	2b00      	cmp	r3, #0
 8000924:	d103      	bne.n	800092e <I2C1_EV_IRQHandler+0xde>
 8000926:	2104      	movs	r1, #4
 8000928:	6978      	ldr	r0, [r7, #20]
 800092a:	f000 f807 	bl	800093c <Slave_States>
 800092e:	bf00      	nop
 8000930:	3718      	adds	r7, #24
 8000932:	46bd      	mov	sp, r7
 8000934:	bd80      	pop	{r7, pc}
 8000936:	bf00      	nop
 8000938:	40005400 	andmi	r5, r0, r0, lsl #8

0800093c <Slave_States>:
 800093c:	b580      	push	{r7, lr}
 800093e:	b084      	sub	sp, #16
 8000940:	af00      	add	r7, sp, #0
 8000942:	6078      	str	r0, [r7, #4]
 8000944:	460b      	mov	r3, r1
 8000946:	70fb      	strb	r3, [r7, #3]
 8000948:	687b      	ldr	r3, [r7, #4]
 800094a:	4a32      	ldr	r2, [pc, #200]	; (8000a14 <Slave_States+0xd8>)
 800094c:	4293      	cmp	r3, r2
 800094e:	bf14      	ite	ne
 8000950:	2301      	movne	r3, #1
 8000952:	2300      	moveq	r3, #0
 8000954:	b2db      	uxtb	r3, r3
 8000956:	73fb      	strb	r3, [r7, #15]
 8000958:	78fb      	ldrb	r3, [r7, #3]
 800095a:	2b04      	cmp	r3, #4
 800095c:	d856      	bhi.n	8000a0c <Slave_States+0xd0>
 800095e:	a201      	add	r2, pc, #4	; (adr r2, 8000964 <Slave_States+0x28>)
 8000960:	f852 f023 	ldr.w	pc, [r2, r3, lsl #2]
 8000964:	0800097f 	stmdaeq	r0, {r0, r1, r2, r3, r4, r5, r6, r8, fp}
 8000968:	08000979 	stmdaeq	r0, {r0, r3, r4, r5, r6, r8, fp}
 800096c:	080009a3 	stmdaeq	r0, {r0, r1, r5, r7, r8, fp}
 8000970:	080009bb 	stmdaeq	r0, {r0, r1, r3, r4, r5, r7, r8, fp}
 8000974:	080009df 	stmdaeq	r0, {r0, r1, r2, r3, r4, r6, r7, r8, fp}
 8000978:	687b      	ldr	r3, [r7, #4]
 800097a:	699b      	ldr	r3, [r3, #24]
 800097c:	e046      	b.n	8000a0c <Slave_States+0xd0>
 800097e:	687b      	ldr	r3, [r7, #4]
 8000980:	699b      	ldr	r3, [r3, #24]
 8000982:	f003 0304 	and.w	r3, r3, #4
 8000986:	2b00      	cmp	r3, #0
 8000988:	d03b      	beq.n	8000a02 <Slave_States+0xc6>
 800098a:	7bfa      	ldrb	r2, [r7, #15]
 800098c:	4922      	ldr	r1, [pc, #136]	; (8000a18 <Slave_States+0xdc>)
 800098e:	4613      	mov	r3, r2
 8000990:	00db      	lsls	r3, r3, #3
 8000992:	4413      	add	r3, r2
 8000994:	009b      	lsls	r3, r3, #2
 8000996:	440b      	add	r3, r1
 8000998:	3320      	adds	r3, #32
 800099a:	681b      	ldr	r3, [r3, #0]
 800099c:	2000      	movs	r0, #0
 800099e:	4798      	blx	r3
 80009a0:	e02f      	b.n	8000a02 <Slave_States+0xc6>
 80009a2:	7bfa      	ldrb	r2, [r7, #15]
 80009a4:	491c      	ldr	r1, [pc, #112]	; (8000a18 <Slave_States+0xdc>)
 80009a6:	4613      	mov	r3, r2
 80009a8:	00db      	lsls	r3, r3, #3
 80009aa:	4413      	add	r3, r2
 80009ac:	009b      	lsls	r3, r3, #2
 80009ae:	440b      	add	r3, r1
 80009b0:	3320      	adds	r3, #32
 80009b2:	681b      	ldr	r3, [r3, #0]
 80009b4:	2002      	movs	r0, #2
 80009b6:	4798      	blx	r3
 80009b8:	e028      	b.n	8000a0c <Slave_States+0xd0>
 80009ba:	687b      	ldr	r3, [r7, #4]
 80009bc:	699b      	ldr	r3, [r3, #24]
 80009be:	f003 0304 	and.w	r3, r3, #4
 80009c2:	2b00      	cmp	r3, #0
 80009c4:	d01f      	beq.n	8000a06 <Slave_States+0xca>
 80009c6:	7bfa      	ldrb	r2, [r7, #15]
 80009c8:	4913      	ldr	r1, [pc, #76]	; (8000a18 <Slave_States+0xdc>)
 80009ca:	4613      	mov	r3, r2
 80009cc:	00db      	lsls	r3, r3, #3
 80009ce:	4413      	add	r3, r2
 80009d0:	009b      	lsls	r3, r3, #2
 80009d2:	440b      	add	r3, r1
 80009d4:	3320      	adds	r3, #32
 80009d6:	681b      	ldr	r3, [r3, #0]
 80009d8:	2003      	movs	r0, #3
 80009da:	4798      	blx	r3
 80009dc:	e013      	b.n	8000a06 <Slave_States+0xca>
 80009de:	687b      	ldr	r3, [r7, #4]
 80009e0:	699b      	ldr	r3, [r3, #24]
 80009e2:	f003 0304 	and.w	r3, r3, #4
 80009e6:	2b00      	cmp	r3, #0
 80009e8:	d10f      	bne.n	8000a0a <Slave_States+0xce>
 80009ea:	7bfa      	ldrb	r2, [r7, #15]
 80009ec:	490a      	ldr	r1, [pc, #40]	; (8000a18 <Slave_States+0xdc>)
 80009ee:	4613      	mov	r3, r2
 80009f0:	00db      	lsls	r3, r3, #3
 80009f2:	4413      	add	r3, r2
 80009f4:	009b      	lsls	r3, r3, #2
 80009f6:	440b      	add	r3, r1
 80009f8:	3320      	adds	r3, #32
 80009fa:	681b      	ldr	r3, [r3, #0]
 80009fc:	2004      	movs	r0, #4
 80009fe:	4798      	blx	r3
 8000a00:	e003      	b.n	8000a0a <Slave_States+0xce>
 8000a02:	bf00      	nop
 8000a04:	e002      	b.n	8000a0c <Slave_States+0xd0>
 8000a06:	bf00      	nop
 8000a08:	e000      	b.n	8000a0c <Slave_States+0xd0>
 8000a0a:	bf00      	nop
 8000a0c:	bf00      	nop
 8000a0e:	3710      	adds	r7, #16
 8000a10:	46bd      	mov	sp, r7
 8000a12:	bd80      	pop	{r7, pc}
 8000a14:	40005400 	andmi	r5, r0, r0, lsl #8
 8000a18:	20000020 	andcs	r0, r0, r0, lsr #32

08000a1c <I2C2_ER_IRQHandler>:
 8000a1c:	b480      	push	{r7}
 8000a1e:	af00      	add	r7, sp, #0
 8000a20:	bf00      	nop
 8000a22:	46bd      	mov	sp, r7
 8000a24:	bc80      	pop	{r7}
 8000a26:	4770      	bx	lr

08000a28 <I2C2_EV_IRQHandler>:
 8000a28:	b480      	push	{r7}
 8000a2a:	af00      	add	r7, sp, #0
 8000a2c:	bf00      	nop
 8000a2e:	46bd      	mov	sp, r7
 8000a30:	bc80      	pop	{r7}
 8000a32:	4770      	bx	lr

08000a34 <SPI1_IRQHandler>:
 8000a34:	b580      	push	{r7, lr}
 8000a36:	b082      	sub	sp, #8
 8000a38:	af00      	add	r7, sp, #0
 8000a3a:	4b13      	ldr	r3, [pc, #76]	; (8000a88 <SPI1_IRQHandler+0x54>)
 8000a3c:	689b      	ldr	r3, [r3, #8]
 8000a3e:	085b      	lsrs	r3, r3, #1
 8000a40:	f003 0301 	and.w	r3, r3, #1
 8000a44:	b2da      	uxtb	r2, r3
 8000a46:	793b      	ldrb	r3, [r7, #4]
 8000a48:	f362 0300 	bfi	r3, r2, #0, #1
 8000a4c:	713b      	strb	r3, [r7, #4]
 8000a4e:	4b0e      	ldr	r3, [pc, #56]	; (8000a88 <SPI1_IRQHandler+0x54>)
 8000a50:	689b      	ldr	r3, [r3, #8]
 8000a52:	f003 0301 	and.w	r3, r3, #1
 8000a56:	b2da      	uxtb	r2, r3
 8000a58:	793b      	ldrb	r3, [r7, #4]
 8000a5a:	f362 0341 	bfi	r3, r2, #1, #1
 8000a5e:	713b      	strb	r3, [r7, #4]
 8000a60:	4b09      	ldr	r3, [pc, #36]	; (8000a88 <SPI1_IRQHandler+0x54>)
 8000a62:	689b      	ldr	r3, [r3, #8]
 8000a64:	091b      	lsrs	r3, r3, #4
 8000a66:	f003 0301 	and.w	r3, r3, #1
 8000a6a:	b2da      	uxtb	r2, r3
 8000a6c:	793b      	ldrb	r3, [r7, #4]
 8000a6e:	f362 0382 	bfi	r3, r2, #2, #1
 8000a72:	713b      	strb	r3, [r7, #4]
 8000a74:	4b05      	ldr	r3, [pc, #20]	; (8000a8c <SPI1_IRQHandler+0x58>)
 8000a76:	681b      	ldr	r3, [r3, #0]
 8000a78:	695b      	ldr	r3, [r3, #20]
 8000a7a:	7938      	ldrb	r0, [r7, #4]
 8000a7c:	4798      	blx	r3
 8000a7e:	bf00      	nop
 8000a80:	3708      	adds	r7, #8
 8000a82:	46bd      	mov	sp, r7
 8000a84:	bd80      	pop	{r7, pc}
 8000a86:	bf00      	nop
 8000a88:	40013000 	andmi	r3, r1, r0
 8000a8c:	20000068 	andcs	r0, r0, r8, rrx

08000a90 <SPI2_IRQHandler>:
 8000a90:	b580      	push	{r7, lr}
 8000a92:	b082      	sub	sp, #8
 8000a94:	af00      	add	r7, sp, #0
 8000a96:	4b13      	ldr	r3, [pc, #76]	; (8000ae4 <SPI2_IRQHandler+0x54>)
 8000a98:	689b      	ldr	r3, [r3, #8]
 8000a9a:	085b      	lsrs	r3, r3, #1
 8000a9c:	f003 0301 	and.w	r3, r3, #1
 8000aa0:	b2da      	uxtb	r2, r3
 8000aa2:	793b      	ldrb	r3, [r7, #4]
 8000aa4:	f362 0300 	bfi	r3, r2, #0, #1
 8000aa8:	713b      	strb	r3, [r7, #4]
 8000aaa:	4b0e      	ldr	r3, [pc, #56]	; (8000ae4 <SPI2_IRQHandler+0x54>)
 8000aac:	689b      	ldr	r3, [r3, #8]
 8000aae:	f003 0301 	and.w	r3, r3, #1
 8000ab2:	b2da      	uxtb	r2, r3
 8000ab4:	793b      	ldrb	r3, [r7, #4]
 8000ab6:	f362 0341 	bfi	r3, r2, #1, #1
 8000aba:	713b      	strb	r3, [r7, #4]
 8000abc:	4b09      	ldr	r3, [pc, #36]	; (8000ae4 <SPI2_IRQHandler+0x54>)
 8000abe:	689b      	ldr	r3, [r3, #8]
 8000ac0:	091b      	lsrs	r3, r3, #4
 8000ac2:	f003 0301 	and.w	r3, r3, #1
 8000ac6:	b2da      	uxtb	r2, r3
 8000ac8:	793b      	ldrb	r3, [r7, #4]
 8000aca:	f362 0382 	bfi	r3, r2, #2, #1
 8000ace:	713b      	strb	r3, [r7, #4]
 8000ad0:	4b05      	ldr	r3, [pc, #20]	; (8000ae8 <SPI2_IRQHandler+0x58>)
 8000ad2:	685b      	ldr	r3, [r3, #4]
 8000ad4:	695b      	ldr	r3, [r3, #20]
 8000ad6:	7938      	ldrb	r0, [r7, #4]
 8000ad8:	4798      	blx	r3
 8000ada:	bf00      	nop
 8000adc:	3708      	adds	r7, #8
 8000ade:	46bd      	mov	sp, r7
 8000ae0:	bd80      	pop	{r7, pc}
 8000ae2:	bf00      	nop
 8000ae4:	40003800 	andmi	r3, r0, r0, lsl #16
 8000ae8:	20000068 	andcs	r0, r0, r8, rrx

08000aec <USART1_IRQHandler>:
 8000aec:	b580      	push	{r7, lr}
 8000aee:	af00      	add	r7, sp, #0
 8000af0:	4b02      	ldr	r3, [pc, #8]	; (8000afc <USART1_IRQHandler+0x10>)
 8000af2:	681b      	ldr	r3, [r3, #0]
 8000af4:	691b      	ldr	r3, [r3, #16]
 8000af6:	4798      	blx	r3
 8000af8:	bf00      	nop
 8000afa:	bd80      	pop	{r7, pc}
 8000afc:	20000070 	andcs	r0, r0, r0, ror r0

08000b00 <USART2_IRQHandler>:
 8000b00:	b580      	push	{r7, lr}
 8000b02:	af00      	add	r7, sp, #0
 8000b04:	4b02      	ldr	r3, [pc, #8]	; (8000b10 <USART2_IRQHandler+0x10>)
 8000b06:	681b      	ldr	r3, [r3, #0]
 8000b08:	691b      	ldr	r3, [r3, #16]
 8000b0a:	4798      	blx	r3
 8000b0c:	bf00      	nop
 8000b0e:	bd80      	pop	{r7, pc}
 8000b10:	20000070 	andcs	r0, r0, r0, ror r0

08000b14 <USART3_IRQHandler>:
 8000b14:	b580      	push	{r7, lr}
 8000b16:	af00      	add	r7, sp, #0
 8000b18:	4b02      	ldr	r3, [pc, #8]	; (8000b24 <USART3_IRQHandler+0x10>)
 8000b1a:	681b      	ldr	r3, [r3, #0]
 8000b1c:	691b      	ldr	r3, [r3, #16]
 8000b1e:	4798      	blx	r3
 8000b20:	bf00      	nop
 8000b22:	bd80      	pop	{r7, pc}
 8000b24:	20000070 	andcs	r0, r0, r0, ror r0

08000b28 <Get_CRLH_Position>:
 8000b28:	b480      	push	{r7}
 8000b2a:	b083      	sub	sp, #12
 8000b2c:	af00      	add	r7, sp, #0
 8000b2e:	4603      	mov	r3, r0
 8000b30:	80fb      	strh	r3, [r7, #6]
 8000b32:	88fb      	ldrh	r3, [r7, #6]
 8000b34:	2b80      	cmp	r3, #128	; 0x80
 8000b36:	d042      	beq.n	8000bbe <Get_CRLH_Position+0x96>
 8000b38:	2b80      	cmp	r3, #128	; 0x80
 8000b3a:	dc11      	bgt.n	8000b60 <Get_CRLH_Position+0x38>
 8000b3c:	2b08      	cmp	r3, #8
 8000b3e:	d036      	beq.n	8000bae <Get_CRLH_Position+0x86>
 8000b40:	2b08      	cmp	r3, #8
 8000b42:	dc06      	bgt.n	8000b52 <Get_CRLH_Position+0x2a>
 8000b44:	2b02      	cmp	r3, #2
 8000b46:	d02e      	beq.n	8000ba6 <Get_CRLH_Position+0x7e>
 8000b48:	2b04      	cmp	r3, #4
 8000b4a:	d02e      	beq.n	8000baa <Get_CRLH_Position+0x82>
 8000b4c:	2b01      	cmp	r3, #1
 8000b4e:	d028      	beq.n	8000ba2 <Get_CRLH_Position+0x7a>
 8000b50:	e047      	b.n	8000be2 <Get_CRLH_Position+0xba>
 8000b52:	2b20      	cmp	r3, #32
 8000b54:	d02f      	beq.n	8000bb6 <Get_CRLH_Position+0x8e>
 8000b56:	2b40      	cmp	r3, #64	; 0x40
 8000b58:	d02f      	beq.n	8000bba <Get_CRLH_Position+0x92>
 8000b5a:	2b10      	cmp	r3, #16
 8000b5c:	d029      	beq.n	8000bb2 <Get_CRLH_Position+0x8a>
 8000b5e:	e040      	b.n	8000be2 <Get_CRLH_Position+0xba>
 8000b60:	f5b3 6f00 	cmp.w	r3, #2048	; 0x800
 8000b64:	d033      	beq.n	8000bce <Get_CRLH_Position+0xa6>
 8000b66:	f5b3 6f00 	cmp.w	r3, #2048	; 0x800
 8000b6a:	dc09      	bgt.n	8000b80 <Get_CRLH_Position+0x58>
 8000b6c:	f5b3 7f00 	cmp.w	r3, #512	; 0x200
 8000b70:	d029      	beq.n	8000bc6 <Get_CRLH_Position+0x9e>
 8000b72:	f5b3 6f80 	cmp.w	r3, #1024	; 0x400
 8000b76:	d028      	beq.n	8000bca <Get_CRLH_Position+0xa2>
 8000b78:	f5b3 7f80 	cmp.w	r3, #256	; 0x100
 8000b7c:	d021      	beq.n	8000bc2 <Get_CRLH_Position+0x9a>
 8000b7e:	e030      	b.n	8000be2 <Get_CRLH_Position+0xba>
 8000b80:	f5b3 5f00 	cmp.w	r3, #8192	; 0x2000
 8000b84:	d027      	beq.n	8000bd6 <Get_CRLH_Position+0xae>
 8000b86:	f5b3 5f00 	cmp.w	r3, #8192	; 0x2000
 8000b8a:	dc03      	bgt.n	8000b94 <Get_CRLH_Position+0x6c>
 8000b8c:	f5b3 5f80 	cmp.w	r3, #4096	; 0x1000
 8000b90:	d01f      	beq.n	8000bd2 <Get_CRLH_Position+0xaa>
 8000b92:	e026      	b.n	8000be2 <Get_CRLH_Position+0xba>
 8000b94:	f5b3 4f80 	cmp.w	r3, #16384	; 0x4000
 8000b98:	d01f      	beq.n	8000bda <Get_CRLH_Position+0xb2>
 8000b9a:	f5b3 4f00 	cmp.w	r3, #32768	; 0x8000
 8000b9e:	d01e      	beq.n	8000bde <Get_CRLH_Position+0xb6>
 8000ba0:	e01f      	b.n	8000be2 <Get_CRLH_Position+0xba>
 8000ba2:	2300      	movs	r3, #0
 8000ba4:	e01e      	b.n	8000be4 <Get_CRLH_Position+0xbc>
 8000ba6:	2304      	movs	r3, #4
 8000ba8:	e01c      	b.n	8000be4 <Get_CRLH_Position+0xbc>
 8000baa:	2308      	movs	r3, #8
 8000bac:	e01a      	b.n	8000be4 <Get_CRLH_Position+0xbc>
 8000bae:	230c      	movs	r3, #12
 8000bb0:	e018      	b.n	8000be4 <Get_CRLH_Position+0xbc>
 8000bb2:	2310      	movs	r3, #16
 8000bb4:	e016      	b.n	8000be4 <Get_CRLH_Position+0xbc>
 8000bb6:	2314      	movs	r3, #20
 8000bb8:	e014      	b.n	8000be4 <Get_CRLH_Position+0xbc>
 8000bba:	2318      	movs	r3, #24
 8000bbc:	e012      	b.n	8000be4 <Get_CRLH_Position+0xbc>
 8000bbe:	231c      	movs	r3, #28
 8000bc0:	e010      	b.n	8000be4 <Get_CRLH_Position+0xbc>
 8000bc2:	2300      	movs	r3, #0
 8000bc4:	e00e      	b.n	8000be4 <Get_CRLH_Position+0xbc>
 8000bc6:	2304      	movs	r3, #4
 8000bc8:	e00c      	b.n	8000be4 <Get_CRLH_Position+0xbc>
 8000bca:	2308      	movs	r3, #8
 8000bcc:	e00a      	b.n	8000be4 <Get_CRLH_Position+0xbc>
 8000bce:	230c      	movs	r3, #12
 8000bd0:	e008      	b.n	8000be4 <Get_CRLH_Position+0xbc>
 8000bd2:	2310      	movs	r3, #16
 8000bd4:	e006      	b.n	8000be4 <Get_CRLH_Position+0xbc>
 8000bd6:	2314      	movs	r3, #20
 8000bd8:	e004      	b.n	8000be4 <Get_CRLH_Position+0xbc>
 8000bda:	2318      	movs	r3, #24
 8000bdc:	e002      	b.n	8000be4 <Get_CRLH_Position+0xbc>
 8000bde:	231c      	movs	r3, #28
 8000be0:	e000      	b.n	8000be4 <Get_CRLH_Position+0xbc>
 8000be2:	2300      	movs	r3, #0
 8000be4:	4618      	mov	r0, r3
 8000be6:	370c      	adds	r7, #12
 8000be8:	46bd      	mov	sp, r7
 8000bea:	bc80      	pop	{r7}
 8000bec:	4770      	bx	lr

08000bee <MCAL_GPIO_Init>:
 8000bee:	b590      	push	{r4, r7, lr}
 8000bf0:	b085      	sub	sp, #20
 8000bf2:	af00      	add	r7, sp, #0
 8000bf4:	6078      	str	r0, [r7, #4]
 8000bf6:	6039      	str	r1, [r7, #0]
 8000bf8:	2300      	movs	r3, #0
 8000bfa:	60fb      	str	r3, [r7, #12]
 8000bfc:	2300      	movs	r3, #0
 8000bfe:	72fb      	strb	r3, [r7, #11]
 8000c00:	683b      	ldr	r3, [r7, #0]
 8000c02:	881b      	ldrh	r3, [r3, #0]
 8000c04:	2bff      	cmp	r3, #255	; 0xff
 8000c06:	d801      	bhi.n	8000c0c <MCAL_GPIO_Init+0x1e>
 8000c08:	687b      	ldr	r3, [r7, #4]
 8000c0a:	e001      	b.n	8000c10 <MCAL_GPIO_Init+0x22>
 8000c0c:	687b      	ldr	r3, [r7, #4]
 8000c0e:	3304      	adds	r3, #4
 8000c10:	60fb      	str	r3, [r7, #12]
 8000c12:	683b      	ldr	r3, [r7, #0]
 8000c14:	881b      	ldrh	r3, [r3, #0]
 8000c16:	4618      	mov	r0, r3
 8000c18:	f7ff ff86 	bl	8000b28 <Get_CRLH_Position>
 8000c1c:	4603      	mov	r3, r0
 8000c1e:	461a      	mov	r2, r3
 8000c20:	230f      	movs	r3, #15
 8000c22:	4093      	lsls	r3, r2
 8000c24:	43da      	mvns	r2, r3
 8000c26:	68fb      	ldr	r3, [r7, #12]
 8000c28:	681b      	ldr	r3, [r3, #0]
 8000c2a:	401a      	ands	r2, r3
 8000c2c:	68fb      	ldr	r3, [r7, #12]
 8000c2e:	601a      	str	r2, [r3, #0]
 8000c30:	683b      	ldr	r3, [r7, #0]
 8000c32:	789b      	ldrb	r3, [r3, #2]
 8000c34:	2b04      	cmp	r3, #4
 8000c36:	d00b      	beq.n	8000c50 <MCAL_GPIO_Init+0x62>
 8000c38:	683b      	ldr	r3, [r7, #0]
 8000c3a:	789b      	ldrb	r3, [r3, #2]
 8000c3c:	2b05      	cmp	r3, #5
 8000c3e:	d007      	beq.n	8000c50 <MCAL_GPIO_Init+0x62>
 8000c40:	683b      	ldr	r3, [r7, #0]
 8000c42:	789b      	ldrb	r3, [r3, #2]
 8000c44:	2b07      	cmp	r3, #7
 8000c46:	d003      	beq.n	8000c50 <MCAL_GPIO_Init+0x62>
 8000c48:	683b      	ldr	r3, [r7, #0]
 8000c4a:	789b      	ldrb	r3, [r3, #2]
 8000c4c:	2b06      	cmp	r3, #6
 8000c4e:	d11c      	bne.n	8000c8a <MCAL_GPIO_Init+0x9c>
 8000c50:	683b      	ldr	r3, [r7, #0]
 8000c52:	789b      	ldrb	r3, [r3, #2]
 8000c54:	3b04      	subs	r3, #4
 8000c56:	009b      	lsls	r3, r3, #2
 8000c58:	b25a      	sxtb	r2, r3
 8000c5a:	683b      	ldr	r3, [r7, #0]
 8000c5c:	78db      	ldrb	r3, [r3, #3]
 8000c5e:	b25b      	sxtb	r3, r3
 8000c60:	4313      	orrs	r3, r2
 8000c62:	b25b      	sxtb	r3, r3
 8000c64:	b2db      	uxtb	r3, r3
 8000c66:	f003 030f 	and.w	r3, r3, #15
 8000c6a:	72fb      	strb	r3, [r7, #11]
 8000c6c:	7afc      	ldrb	r4, [r7, #11]
 8000c6e:	683b      	ldr	r3, [r7, #0]
 8000c70:	881b      	ldrh	r3, [r3, #0]
 8000c72:	4618      	mov	r0, r3
 8000c74:	f7ff ff58 	bl	8000b28 <Get_CRLH_Position>
 8000c78:	4603      	mov	r3, r0
 8000c7a:	fa04 f203 	lsl.w	r2, r4, r3
 8000c7e:	68fb      	ldr	r3, [r7, #12]
 8000c80:	681b      	ldr	r3, [r3, #0]
 8000c82:	431a      	orrs	r2, r3
 8000c84:	68fb      	ldr	r3, [r7, #12]
 8000c86:	601a      	str	r2, [r3, #0]
 8000c88:	e057      	b.n	8000d3a <MCAL_GPIO_Init+0x14c>
 8000c8a:	683b      	ldr	r3, [r7, #0]
 8000c8c:	789b      	ldrb	r3, [r3, #2]
 8000c8e:	2b00      	cmp	r3, #0
 8000c90:	d003      	beq.n	8000c9a <MCAL_GPIO_Init+0xac>
 8000c92:	683b      	ldr	r3, [r7, #0]
 8000c94:	789b      	ldrb	r3, [r3, #2]
 8000c96:	2b01      	cmp	r3, #1
 8000c98:	d115      	bne.n	8000cc6 <MCAL_GPIO_Init+0xd8>
 8000c9a:	683b      	ldr	r3, [r7, #0]
 8000c9c:	789b      	ldrb	r3, [r3, #2]
 8000c9e:	009b      	lsls	r3, r3, #2
 8000ca0:	b2db      	uxtb	r3, r3
 8000ca2:	f003 030f 	and.w	r3, r3, #15
 8000ca6:	72fb      	strb	r3, [r7, #11]
 8000ca8:	7afc      	ldrb	r4, [r7, #11]
 8000caa:	683b      	ldr	r3, [r7, #0]
 8000cac:	881b      	ldrh	r3, [r3, #0]
 8000cae:	4618      	mov	r0, r3
 8000cb0:	f7ff ff3a 	bl	8000b28 <Get_CRLH_Position>
 8000cb4:	4603      	mov	r3, r0
 8000cb6:	fa04 f203 	lsl.w	r2, r4, r3
 8000cba:	68fb      	ldr	r3, [r7, #12]
 8000cbc:	681b      	ldr	r3, [r3, #0]
 8000cbe:	431a      	orrs	r2, r3
 8000cc0:	68fb      	ldr	r3, [r7, #12]
 8000cc2:	601a      	str	r2, [r3, #0]
 8000cc4:	e039      	b.n	8000d3a <MCAL_GPIO_Init+0x14c>
 8000cc6:	683b      	ldr	r3, [r7, #0]
 8000cc8:	789b      	ldrb	r3, [r3, #2]
 8000cca:	2b08      	cmp	r3, #8
 8000ccc:	d110      	bne.n	8000cf0 <MCAL_GPIO_Init+0x102>
 8000cce:	2304      	movs	r3, #4
 8000cd0:	72fb      	strb	r3, [r7, #11]
 8000cd2:	7afc      	ldrb	r4, [r7, #11]
 8000cd4:	683b      	ldr	r3, [r7, #0]
 8000cd6:	881b      	ldrh	r3, [r3, #0]
 8000cd8:	4618      	mov	r0, r3
 8000cda:	f7ff ff25 	bl	8000b28 <Get_CRLH_Position>
 8000cde:	4603      	mov	r3, r0
 8000ce0:	fa04 f203 	lsl.w	r2, r4, r3
 8000ce4:	68fb      	ldr	r3, [r7, #12]
 8000ce6:	681b      	ldr	r3, [r3, #0]
 8000ce8:	431a      	orrs	r2, r3
 8000cea:	68fb      	ldr	r3, [r7, #12]
 8000cec:	601a      	str	r2, [r3, #0]
 8000cee:	e024      	b.n	8000d3a <MCAL_GPIO_Init+0x14c>
 8000cf0:	2308      	movs	r3, #8
 8000cf2:	72fb      	strb	r3, [r7, #11]
 8000cf4:	7afc      	ldrb	r4, [r7, #11]
 8000cf6:	683b      	ldr	r3, [r7, #0]
 8000cf8:	881b      	ldrh	r3, [r3, #0]
 8000cfa:	4618      	mov	r0, r3
 8000cfc:	f7ff ff14 	bl	8000b28 <Get_CRLH_Position>
 8000d00:	4603      	mov	r3, r0
 8000d02:	fa04 f203 	lsl.w	r2, r4, r3
 8000d06:	68fb      	ldr	r3, [r7, #12]
 8000d08:	681b      	ldr	r3, [r3, #0]
 8000d0a:	431a      	orrs	r2, r3
 8000d0c:	68fb      	ldr	r3, [r7, #12]
 8000d0e:	601a      	str	r2, [r3, #0]
 8000d10:	683b      	ldr	r3, [r7, #0]
 8000d12:	789b      	ldrb	r3, [r3, #2]
 8000d14:	2b02      	cmp	r3, #2
 8000d16:	d107      	bne.n	8000d28 <MCAL_GPIO_Init+0x13a>
 8000d18:	687b      	ldr	r3, [r7, #4]
 8000d1a:	68db      	ldr	r3, [r3, #12]
 8000d1c:	683a      	ldr	r2, [r7, #0]
 8000d1e:	8812      	ldrh	r2, [r2, #0]
 8000d20:	431a      	orrs	r2, r3
 8000d22:	687b      	ldr	r3, [r7, #4]
 8000d24:	60da      	str	r2, [r3, #12]
 8000d26:	e008      	b.n	8000d3a <MCAL_GPIO_Init+0x14c>
 8000d28:	687b      	ldr	r3, [r7, #4]
 8000d2a:	68db      	ldr	r3, [r3, #12]
 8000d2c:	683a      	ldr	r2, [r7, #0]
 8000d2e:	8812      	ldrh	r2, [r2, #0]
 8000d30:	43d2      	mvns	r2, r2
 8000d32:	401a      	ands	r2, r3
 8000d34:	687b      	ldr	r3, [r7, #4]
 8000d36:	60da      	str	r2, [r3, #12]
 8000d38:	e7ff      	b.n	8000d3a <MCAL_GPIO_Init+0x14c>
 8000d3a:	bf00      	nop
 8000d3c:	3714      	adds	r7, #20
 8000d3e:	46bd      	mov	sp, r7
 8000d40:	bd90      	pop	{r4, r7, pc}
	...

08000d44 <Reset_Handler>:
 8000d44:	480d      	ldr	r0, [pc, #52]	; (8000d7c <LoopForever+0x2>)
 8000d46:	4685      	mov	sp, r0
 8000d48:	f3af 8000 	nop.w
 8000d4c:	480c      	ldr	r0, [pc, #48]	; (8000d80 <LoopForever+0x6>)
 8000d4e:	490d      	ldr	r1, [pc, #52]	; (8000d84 <LoopForever+0xa>)
 8000d50:	4a0d      	ldr	r2, [pc, #52]	; (8000d88 <LoopForever+0xe>)
 8000d52:	2300      	movs	r3, #0
 8000d54:	e002      	b.n	8000d5c <LoopCopyDataInit>

08000d56 <CopyDataInit>:
 8000d56:	58d4      	ldr	r4, [r2, r3]
 8000d58:	50c4      	str	r4, [r0, r3]
 8000d5a:	3304      	adds	r3, #4

08000d5c <LoopCopyDataInit>:
 8000d5c:	18c4      	adds	r4, r0, r3
 8000d5e:	428c      	cmp	r4, r1
 8000d60:	d3f9      	bcc.n	8000d56 <CopyDataInit>
 8000d62:	4a0a      	ldr	r2, [pc, #40]	; (8000d8c <LoopForever+0x12>)
 8000d64:	4c0a      	ldr	r4, [pc, #40]	; (8000d90 <LoopForever+0x16>)
 8000d66:	2300      	movs	r3, #0
 8000d68:	e001      	b.n	8000d6e <LoopFillZerobss>

08000d6a <FillZerobss>:
 8000d6a:	6013      	str	r3, [r2, #0]
 8000d6c:	3204      	adds	r2, #4

08000d6e <LoopFillZerobss>:
 8000d6e:	42a2      	cmp	r2, r4
 8000d70:	d3fb      	bcc.n	8000d6a <FillZerobss>
 8000d72:	f000 f811 	bl	8000d98 <__libc_init_array>
 8000d76:	f7ff fa57 	bl	8000228 <main>

08000d7a <LoopForever>:
 8000d7a:	e7fe      	b.n	8000d7a <LoopForever>
 8000d7c:	20005000 	andcs	r5, r0, r0
 8000d80:	20000000 	andcs	r0, r0, r0
 8000d84:	20000000 	andcs	r0, r0, r0
 8000d88:	08000e0c 	stmdaeq	r0, {r2, r3, r9, sl, fp}
 8000d8c:	20000000 	andcs	r0, r0, r0
 8000d90:	200000b0 	strhcs	r0, [r0], -r0	; <UNPREDICTABLE>

08000d94 <ADC1_2_IRQHandler>:
 8000d94:	e7fe      	b.n	8000d94 <ADC1_2_IRQHandler>
	...

08000d98 <__libc_init_array>:
 8000d98:	b570      	push	{r4, r5, r6, lr}
 8000d9a:	2500      	movs	r5, #0
 8000d9c:	4e0c      	ldr	r6, [pc, #48]	; (8000dd0 <__libc_init_array+0x38>)
 8000d9e:	4c0d      	ldr	r4, [pc, #52]	; (8000dd4 <__libc_init_array+0x3c>)
 8000da0:	1ba4      	subs	r4, r4, r6
 8000da2:	10a4      	asrs	r4, r4, #2
 8000da4:	42a5      	cmp	r5, r4
 8000da6:	d109      	bne.n	8000dbc <__libc_init_array+0x24>
 8000da8:	f000 f81a 	bl	8000de0 <_init>
 8000dac:	2500      	movs	r5, #0
 8000dae:	4e0a      	ldr	r6, [pc, #40]	; (8000dd8 <__libc_init_array+0x40>)
 8000db0:	4c0a      	ldr	r4, [pc, #40]	; (8000ddc <__libc_init_array+0x44>)
 8000db2:	1ba4      	subs	r4, r4, r6
 8000db4:	10a4      	asrs	r4, r4, #2
 8000db6:	42a5      	cmp	r5, r4
 8000db8:	d105      	bne.n	8000dc6 <__libc_init_array+0x2e>
 8000dba:	bd70      	pop	{r4, r5, r6, pc}
 8000dbc:	f856 3025 	ldr.w	r3, [r6, r5, lsl #2]
 8000dc0:	4798      	blx	r3
 8000dc2:	3501      	adds	r5, #1
 8000dc4:	e7ee      	b.n	8000da4 <__libc_init_array+0xc>
 8000dc6:	f856 3025 	ldr.w	r3, [r6, r5, lsl #2]
 8000dca:	4798      	blx	r3
 8000dcc:	3501      	adds	r5, #1
 8000dce:	e7f2      	b.n	8000db6 <__libc_init_array+0x1e>
 8000dd0:	08000e04 	stmdaeq	r0, {r2, r9, sl, fp}
 8000dd4:	08000e04 	stmdaeq	r0, {r2, r9, sl, fp}
 8000dd8:	08000e04 	stmdaeq	r0, {r2, r9, sl, fp}
 8000ddc:	08000e08 	stmdaeq	r0, {r3, r9, sl, fp}

08000de0 <_init>:
 8000de0:	b5f8      	push	{r3, r4, r5, r6, r7, lr}
 8000de2:	bf00      	nop
 8000de4:	bcf8      	pop	{r3, r4, r5, r6, r7}
 8000de6:	bc08      	pop	{r3}
 8000de8:	469e      	mov	lr, r3
 8000dea:	4770      	bx	lr

08000dec <_fini>:
 8000dec:	b5f8      	push	{r3, r4, r5, r6, r7, lr}
 8000dee:	bf00      	nop
 8000df0:	bcf8      	pop	{r3, r4, r5, r6, r7}
 8000df2:	bc08      	pop	{r3}
 8000df4:	469e      	mov	lr, r3
 8000df6:	4770      	bx	lr
